
custom_fp_mult.elf:     file format elf32-littlenios2
custom_fp_mult.elf
architecture: nios2:r1, flags 0x00000112:
EXEC_P, HAS_SYMS, D_PAGED
start address 0x00800244

Program Header:
    LOAD off    0x00001000 vaddr 0x00800000 paddr 0x00800000 align 2**12
         filesz 0x00000020 memsz 0x00000020 flags r-x
    LOAD off    0x00001020 vaddr 0x00800020 paddr 0x00800020 align 2**12
         filesz 0x0001447c memsz 0x0001447c flags r-x
    LOAD off    0x0001549c vaddr 0x0081449c paddr 0x00815f88 align 2**12
         filesz 0x00001aec memsz 0x00001aec flags rw-
    LOAD off    0x00017a74 vaddr 0x00817a74 paddr 0x00817a74 align 2**12
         filesz 0x00000000 memsz 0x00000160 flags rw-

Sections:
Idx Name          Size      VMA       LMA       File off  Algn
  0 .entry        00000020  00800000  00800000  00001000  2**5
                  CONTENTS, ALLOC, LOAD, READONLY, CODE
  1 .exceptions   00000224  00800020  00800020  00001020  2**2
                  CONTENTS, ALLOC, LOAD, READONLY, CODE
  2 .text         00013b5c  00800244  00800244  00001244  2**2
                  CONTENTS, ALLOC, LOAD, READONLY, CODE
  3 .rodata       000006fc  00813da0  00813da0  00014da0  2**2
                  CONTENTS, ALLOC, LOAD, READONLY, DATA
  4 .rwdata       00001aec  0081449c  00815f88  0001549c  2**2
                  CONTENTS, ALLOC, LOAD, DATA, SMALL_DATA
  5 .bss          00000160  00817a74  00817a74  00017a74  2**2
                  ALLOC, SMALL_DATA
  6 .sdram        00000000  00817bd4  00817bd4  00016f88  2**0
                  CONTENTS
  7 .comment      00000023  00000000  00000000  00016f88  2**0
                  CONTENTS, READONLY
  8 .debug_aranges 00001248  00000000  00000000  00016fb0  2**3
                  CONTENTS, READONLY, DEBUGGING
  9 .debug_info   0002909a  00000000  00000000  000181f8  2**0
                  CONTENTS, READONLY, DEBUGGING
 10 .debug_abbrev 0000aff4  00000000  00000000  00041292  2**0
                  CONTENTS, READONLY, DEBUGGING
 11 .debug_line   0000defa  00000000  00000000  0004c286  2**0
                  CONTENTS, READONLY, DEBUGGING
 12 .debug_frame  000028dc  00000000  00000000  0005a180  2**2
                  CONTENTS, READONLY, DEBUGGING
 13 .debug_str    000042c9  00000000  00000000  0005ca5c  2**0
                  CONTENTS, READONLY, DEBUGGING
 14 .debug_loc    0001d6ee  00000000  00000000  00060d25  2**0
                  CONTENTS, READONLY, DEBUGGING
 15 .debug_alt_sim_info 00000030  00000000  00000000  0007e414  2**2
                  CONTENTS, READONLY, DEBUGGING
 16 .debug_ranges 00001fd0  00000000  00000000  0007e448  2**3
                  CONTENTS, READONLY, DEBUGGING
 17 .thread_model 00000003  00000000  00000000  00083c02  2**0
                  CONTENTS, READONLY
 18 .cpu          00000003  00000000  00000000  00083c05  2**0
                  CONTENTS, READONLY
 19 .qsys         00000001  00000000  00000000  00083c08  2**0
                  CONTENTS, READONLY
 20 .simulation_enabled 00000001  00000000  00000000  00083c09  2**0
                  CONTENTS, READONLY
 21 .sysid_hash   00000004  00000000  00000000  00083c0a  2**0
                  CONTENTS, READONLY
 22 .sysid_base   00000004  00000000  00000000  00083c0e  2**0
                  CONTENTS, READONLY
 23 .sysid_time   00000004  00000000  00000000  00083c12  2**0
                  CONTENTS, READONLY
 24 .stderr_dev   00000009  00000000  00000000  00083c16  2**0
                  CONTENTS, READONLY
 25 .stdin_dev    00000009  00000000  00000000  00083c1f  2**0
                  CONTENTS, READONLY
 26 .stdout_dev   00000009  00000000  00000000  00083c28  2**0
                  CONTENTS, READONLY
 27 .sopc_system_name 00000012  00000000  00000000  00083c31  2**0
                  CONTENTS, READONLY
 28 .quartus_project_dir 00000071  00000000  00000000  00083c43  2**0
                  CONTENTS, READONLY
 29 .jdi          000058e3  00000000  00000000  00083cb4  2**0
                  CONTENTS, READONLY
 30 .sopcinfo     0003d564  00000000  00000000  00089597  2**0
                  CONTENTS, READONLY
SYMBOL TABLE:
00800000 l    d  .entry	00000000 .entry
00800020 l    d  .exceptions	00000000 .exceptions
00800244 l    d  .text	00000000 .text
00813da0 l    d  .rodata	00000000 .rodata
0081449c l    d  .rwdata	00000000 .rwdata
00817a74 l    d  .bss	00000000 .bss
00817bd4 l    d  .sdram	00000000 .sdram
00000000 l    d  .comment	00000000 .comment
00000000 l    d  .debug_aranges	00000000 .debug_aranges
00000000 l    d  .debug_info	00000000 .debug_info
00000000 l    d  .debug_abbrev	00000000 .debug_abbrev
00000000 l    d  .debug_line	00000000 .debug_line
00000000 l    d  .debug_frame	00000000 .debug_frame
00000000 l    d  .debug_str	00000000 .debug_str
00000000 l    d  .debug_loc	00000000 .debug_loc
00000000 l    d  .debug_alt_sim_info	00000000 .debug_alt_sim_info
00000000 l    d  .debug_ranges	00000000 .debug_ranges
00000000 l    df *ABS*	00000000 ../custom_fp_mult_bsp//obj/HAL/src/crt0.o
0080028c l       .text	00000000 alt_after_alt_main
00000000 l    df *ABS*	00000000 alt_irq_handler.c
00000000 l    df *ABS*	00000000 alt_instruction_exception_entry.c
00000000 l    df *ABS*	00000000 hello_world.c
00000000 l    df *ABS*	00000000 sf_cos.c
00000000 l    df *ABS*	00000000 ef_rem_pio2.c
00813e54 l     O .rodata	00000318 two_over_pi
00813dd4 l     O .rodata	00000080 npio2_hw
00000000 l    df *ABS*	00000000 kf_cos.c
00000000 l    df *ABS*	00000000 kf_rem_pio2.c
00814198 l     O .rodata	0000000c init_jk
0081416c l     O .rodata	0000002c PIo2
00000000 l    df *ABS*	00000000 kf_sin.c
00000000 l    df *ABS*	00000000 sf_fabs.c
00000000 l    df *ABS*	00000000 sf_floor.c
00000000 l    df *ABS*	00000000 sf_scalbn.c
00000000 l    df *ABS*	00000000 sf_copysign.c
00000000 l    df *ABS*	00000000 addsf3.c
00000000 l    df *ABS*	00000000 divsf3.c
00000000 l    df *ABS*	00000000 eqsf2.c
00000000 l    df *ABS*	00000000 gesf2.c
00000000 l    df *ABS*	00000000 mulsf3.c
00000000 l    df *ABS*	00000000 subsf3.c
00000000 l    df *ABS*	00000000 fixsfsi.c
00000000 l    df *ABS*	00000000 floatsisf.c
00000000 l    df *ABS*	00000000 adddf3.c
00000000 l    df *ABS*	00000000 muldf3.c
00000000 l    df *ABS*	00000000 floatunsidf.c
00000000 l    df *ABS*	00000000 extendsfdf2.c
00000000 l    df *ABS*	00000000 truncdfsf2.c
00000000 l    df *ABS*	00000000 libgcc2.c
00000000 l    df *ABS*	00000000 lib2-mul.c
00000000 l    df *ABS*	00000000 libgcc2.c
00000000 l    df *ABS*	00000000 efgcvt.c
00000000 l    df *ABS*	00000000 impure.c
0081449c l     O .rwdata	00000424 impure_data
00000000 l    df *ABS*	00000000 printf.c
00000000 l    df *ABS*	00000000 puts.c
00000000 l    df *ABS*	00000000 strlen.c
00000000 l    df *ABS*	00000000 vfprintf.c
008142ee l     O .rodata	00000010 zeroes.4404
00806fa0 l     F .text	000000bc __sbprintf
008142fe l     O .rodata	00000010 blanks.4403
00000000 l    df *ABS*	00000000 wsetup.c
00000000 l    df *ABS*	00000000 dtoa.c
008071b0 l     F .text	00000228 quorem
00000000 l    df *ABS*	00000000 ecvtbuf.c
00808a60 l     F .text	000001e0 print_e
00000000 l    df *ABS*	00000000 fflush.c
00000000 l    df *ABS*	00000000 findfp.c
00809840 l     F .text	00000008 __fp_unlock
00809854 l     F .text	0000019c __sinit.part.1
008099f0 l     F .text	00000008 __fp_lock
00000000 l    df *ABS*	00000000 mallocr.c
00000000 l    df *ABS*	00000000 fvwrite.c
00000000 l    df *ABS*	00000000 fwalk.c
00000000 l    df *ABS*	00000000 locale.c
008148e0 l     O .rwdata	00000020 lc_ctype_charset
008148c0 l     O .rwdata	00000020 lc_message_charset
00814900 l     O .rwdata	00000038 lconv
00000000 l    df *ABS*	00000000 makebuf.c
00000000 l    df *ABS*	00000000 mallocr.c
00000000 l    df *ABS*	00000000 memchr.c
00000000 l    df *ABS*	00000000 memcpy.c
00000000 l    df *ABS*	00000000 memmove.c
00000000 l    df *ABS*	00000000 memset.c
00000000 l    df *ABS*	00000000 mprec.c
0081432c l     O .rodata	0000000c p05.2768
00000000 l    df *ABS*	00000000 mallocr.c
00000000 l    df *ABS*	00000000 s_fpclassify.c
00000000 l    df *ABS*	00000000 sbrkr.c
00000000 l    df *ABS*	00000000 stdio.c
00000000 l    df *ABS*	00000000 strcmp.c
00000000 l    df *ABS*	00000000 strcpy.c
00000000 l    df *ABS*	00000000 vfprintf.c
0080cf54 l     F .text	000000fc __sprint_r.part.0
00814450 l     O .rodata	00000010 zeroes.4349
0080e590 l     F .text	000000bc __sbprintf
00814460 l     O .rodata	00000010 blanks.4348
00000000 l    df *ABS*	00000000 writer.c
00000000 l    df *ABS*	00000000 closer.c
00000000 l    df *ABS*	00000000 mallocr.c
00000000 l    df *ABS*	00000000 fclose.c
00000000 l    df *ABS*	00000000 fputwc.c
00000000 l    df *ABS*	00000000 fstatr.c
00000000 l    df *ABS*	00000000 int_errno.c
00000000 l    df *ABS*	00000000 isattyr.c
00000000 l    df *ABS*	00000000 lseekr.c
00000000 l    df *ABS*	00000000 readr.c
00000000 l    df *ABS*	00000000 wbuf.c
00000000 l    df *ABS*	00000000 wcrtomb.c
00000000 l    df *ABS*	00000000 wctomb_r.c
00000000 l    df *ABS*	00000000 libgcc2.c
00000000 l    df *ABS*	00000000 libgcc2.c
00000000 l    df *ABS*	00000000 lib2-divmod.c
00000000 l    df *ABS*	00000000 divdf3.c
00000000 l    df *ABS*	00000000 eqdf2.c
00000000 l    df *ABS*	00000000 gedf2.c
00000000 l    df *ABS*	00000000 ledf2.c
00000000 l    df *ABS*	00000000 subdf3.c
00000000 l    df *ABS*	00000000 fixdfsi.c
00000000 l    df *ABS*	00000000 floatsidf.c
00000000 l    df *ABS*	00000000 alt_close.c
0081138c l     F .text	0000003c alt_get_errno
00000000 l    df *ABS*	00000000 alt_dev.c
008114a0 l     F .text	0000002c alt_dev_null_write
00000000 l    df *ABS*	00000000 alt_errno.c
00000000 l    df *ABS*	00000000 alt_fstat.c
008114cc l     F .text	0000003c alt_get_errno
00000000 l    df *ABS*	00000000 alt_isatty.c
008115c0 l     F .text	0000003c alt_get_errno
00000000 l    df *ABS*	00000000 alt_load.c
008116a8 l     F .text	00000068 alt_load_section
00000000 l    df *ABS*	00000000 alt_lseek.c
00811794 l     F .text	0000003c alt_get_errno
00000000 l    df *ABS*	00000000 alt_main.c
00000000 l    df *ABS*	00000000 alt_malloc_lock.c
00000000 l    df *ABS*	00000000 alt_putstr.c
00000000 l    df *ABS*	00000000 alt_read.c
008119ac l     F .text	0000003c alt_get_errno
00000000 l    df *ABS*	00000000 alt_release_fd.c
00000000 l    df *ABS*	00000000 alt_sbrk.c
00815f78 l     O .rwdata	00000004 heap_end
00000000 l    df *ABS*	00000000 alt_times.c
00811c20 l     F .text	0000003c alt_get_errno
00000000 l    df *ABS*	00000000 alt_write.c
00811cd4 l     F .text	0000003c alt_get_errno
00000000 l    df *ABS*	00000000 alt_sys_init.c
00811e10 l     F .text	00000034 alt_dev_reg
00814ee8 l     O .rwdata	00001060 jtag_uart
00000000 l    df *ABS*	00000000 altera_avalon_jtag_uart_fd.c
00000000 l    df *ABS*	00000000 altera_avalon_jtag_uart_init.c
00812104 l     F .text	0000020c altera_avalon_jtag_uart_irq
00812310 l     F .text	000000a0 altera_avalon_jtag_uart_timeout
00000000 l    df *ABS*	00000000 altera_avalon_jtag_uart_ioctl.c
00000000 l    df *ABS*	00000000 altera_avalon_jtag_uart_read.c
00000000 l    df *ABS*	00000000 altera_avalon_jtag_uart_write.c
00000000 l    df *ABS*	00000000 altera_avalon_timer_sc.c
00812948 l     F .text	00000078 alt_avalon_timer_sc_irq
00000000 l    df *ABS*	00000000 alt_alarm_start.c
00000000 l    df *ABS*	00000000 alt_dcache_flush_all.c
00000000 l    df *ABS*	00000000 alt_dev_llist_insert.c
00812bb0 l     F .text	0000003c alt_get_errno
00000000 l    df *ABS*	00000000 alt_do_ctors.c
00000000 l    df *ABS*	00000000 alt_do_dtors.c
00000000 l    df *ABS*	00000000 alt_icache_flush_all.c
00000000 l    df *ABS*	00000000 alt_iic.c
00000000 l    df *ABS*	00000000 alt_iic_isr_register.c
00000000 l    df *ABS*	00000000 alt_io_redirect.c
00813024 l     F .text	000000e4 alt_open_fd
00000000 l    df *ABS*	00000000 alt_irq_vars.c
00000000 l    df *ABS*	00000000 alt_open.c
00813184 l     F .text	0000003c alt_get_errno
008131c0 l     F .text	000000ec alt_file_locked
00000000 l    df *ABS*	00000000 alt_tick.c
00000000 l    df *ABS*	00000000 altera_nios2_gen2_irq.c
00000000 l    df *ABS*	00000000 alt_find_dev.c
00000000 l    df *ABS*	00000000 alt_find_file.c
00000000 l    df *ABS*	00000000 alt_get_fd.c
00000000 l    df *ABS*	00000000 alt_icache_flush.c
00000000 l    df *ABS*	00000000 atexit.c
00000000 l    df *ABS*	00000000 exit.c
00000000 l    df *ABS*	00000000 fputs.c
00000000 l    df *ABS*	00000000 memcmp.c
00000000 l    df *ABS*	00000000 __atexit.c
00000000 l    df *ABS*	00000000 __call_atexit.c
00000000 l    df *ABS*	00000000 alt_exit.c
00817aa8 g     O .bss	00000004 alt_instruction_exception_handler
0080c508 g     F .text	00000074 _mprec_log10
0080c5f4 g     F .text	0000008c __any_on
0080eb44 g     F .text	00000054 _isatty_r
00814338 g     O .rodata	00000028 __mprec_tinytens
008118ac g     F .text	0000007c alt_main
0080cec4 g     F .text	00000090 strcpy
00804b3c g     F .text	000000c0 _puts_r
00817ad4 g     O .bss	00000100 alt_irq
0080eb98 g     F .text	00000060 _lseek_r
00815f88 g       *ABS*	00000000 __flash_rwdata_start
008106dc g     F .text	00000088 .hidden __eqdf2
00817bd4 g       *ABS*	00000000 __alt_heap_start
00804b00 g     F .text	0000003c printf
0080edb0 g     F .text	0000009c _wcrtomb_r
0080cd84 g     F .text	0000005c __sseek
00809ba0 g     F .text	00000010 __sinit
00808c40 g     F .text	000001a4 fcvtbuf
0080ec58 g     F .text	00000140 __swbuf_r
0080a674 g     F .text	0000007c _setlocale_r
008099f8 g     F .text	00000078 __sfmoreglue
0081194c g     F .text	00000024 __malloc_unlock
008023d8 g     F .text	00000440 .hidden __divsf3
0080b344 g     F .text	0000015c memmove
00809b88 g     F .text	00000018 _cleanup
0080b5c8 g     F .text	000000a8 _Balloc
00803260 g     F .text	00000070 .hidden __fixsfsi
00811970 g     F .text	0000003c alt_putstr
00810764 g     F .text	000000dc .hidden __gtdf2
008135ac g     F .text	00000024 altera_nios2_gen2_irq_init
00800000 g     F .entry	0000001c __reset
00811c5c g     F .text	00000078 times
008007f4 g     F .text	00000524 __ieee754_rem_pio2f
00800020 g       *ABS*	00000000 __flash_exceptions_start
0080eae8 g     F .text	0000005c _fstat_r
00817a8c g     O .bss	00000004 errno
0080cd00 g     F .text	00000008 __seofread
00817a94 g     O .bss	00000004 alt_argv
0081df48 g       *ABS*	00000000 _gp
00802d7c g     F .text	000004e4 .hidden __subsf3
00814d68 g     O .rwdata	00000180 alt_fd_list
008135d0 g     F .text	00000090 alt_find_dev
0080b1fc g     F .text	00000148 memcpy
00809848 g     F .text	0000000c _cleanup_r
008112b0 g     F .text	000000dc .hidden __floatsidf
00813108 g     F .text	0000007c alt_io_redirect
00810840 g     F .text	000000f4 .hidden __ltdf2
00813da0 g       *ABS*	00000000 __DTOR_END__
00804bfc g     F .text	00000014 puts
008138bc g     F .text	0000009c alt_exception_cause_generated_bad_addr
0080cbe4 g     F .text	00000074 __fpclassifyd
0080c464 g     F .text	000000a4 __ratio
0080e574 g     F .text	0000001c __vfiprintf_internal
00812508 g     F .text	0000021c altera_avalon_jtag_uart_read
00804ad0 g     F .text	00000030 _printf_r
0080fc50 g     F .text	00000064 .hidden __udivsi3
008115fc g     F .text	000000ac isatty
00814388 g     O .rodata	000000c8 __mprec_tens
0080a6f0 g     F .text	0000000c __locale_charset
00804a90 g     F .text	00000040 gcvtf
0081382c g     F .text	00000090 alt_icache_flush
00817a88 g     O .bss	00000004 __malloc_top_pad
00815f50 g     O .rwdata	00000004 __mb_cur_max
0080a720 g     F .text	0000000c _localeconv_r
0080b9fc g     F .text	0000003c __i2b
0080a024 g     F .text	000004c8 __sfvwrite_r
0080cc58 g     F .text	00000054 _sbrk_r
00801ca0 g     F .text	00000010 fabsf
0080ebf8 g     F .text	00000060 _read_r
00815f70 g     O .rwdata	00000004 alt_max_fd
0080e7dc g     F .text	000000f0 _fclose_r
00809810 g     F .text	00000030 fflush
00817a84 g     O .bss	00000004 __malloc_max_sbrked_mem
008045b4 g     F .text	00000110 .hidden __extendsfdf2
008033f4 g     F .text	000008ac .hidden __adddf3
00802818 g     F .text	00000078 .hidden __nesf2
0080c20c g     F .text	0000010c __b2d
0080f594 g     F .text	000005c4 .hidden __umoddi3
008117d0 g     F .text	000000dc lseek
00815f48 g     O .rwdata	00000004 _global_impure_ptr
0080c680 g     F .text	00000564 _realloc_r
00801ae8 g     F .text	000001b8 __kernel_sinf
00817bd4 g       *ABS*	00000000 __bss_end
00812f34 g     F .text	000000f0 alt_iic_isr_register
008134a4 g     F .text	00000108 alt_tick
0080ef98 g     F .text	000005fc .hidden __udivdi3
0080ea44 g     F .text	00000024 _fputwc_r
00814360 g     O .rodata	00000028 __mprec_bigtens
0080b7e0 g     F .text	00000104 __s2b
0080450c g     F .text	000000a8 .hidden __floatunsidf
0080bf4c g     F .text	00000060 __mcmp
00809bc0 g     F .text	00000018 __fp_lock_all
00812ee8 g     F .text	0000004c alt_ic_irq_enabled
00813408 g     F .text	0000009c alt_alarm_stop
00800744 g     F .text	000000b0 cosf
00817a9c g     O .bss	00000004 alt_irq_active
008000fc g     F .exceptions	000000d4 alt_irq_handler
00814d40 g     O .rwdata	00000028 alt_dev_null
00812b68 g     F .text	00000048 alt_dcache_flush_all
0080b8e4 g     F .text	00000068 __hi0bits
00811230 g     F .text	00000080 .hidden __fixdfsi
00800d18 g     F .text	000002cc __kernel_cosf
00815f88 g       *ABS*	00000000 __ram_rwdata_end
00815f68 g     O .rwdata	00000008 alt_dev_list
00811d10 g     F .text	00000100 write
00802890 g     F .text	000000bc .hidden __gtsf2
0081449c g       *ABS*	00000000 __ram_rodata_end
00811508 g     F .text	000000b8 fstat
00810840 g     F .text	000000f4 .hidden __ledf2
0080bcc4 g     F .text	00000140 __pow5mult
0080d068 g     F .text	0000150c ___vfiprintf_internal_r
00817a7c g     O .bss	00000004 __nlocale_changed
0080fcb4 g     F .text	00000058 .hidden __umodsi3
00817bd4 g       *ABS*	00000000 end
00812044 g     F .text	000000c0 altera_avalon_jtag_uart_init
008001d0 g     F .exceptions	00000074 alt_instruction_exception_entry
00813da0 g       *ABS*	00000000 __CTOR_LIST__
01000000 g       *ABS*	00000000 __alt_stack_pointer
00809288 g     F .text	00000310 _dcvt
008129c0 g     F .text	0000007c alt_avalon_timer_sc_init
0080486c g     F .text	00000064 .hidden __clzsi2
00812724 g     F .text	00000224 altera_avalon_jtag_uart_write
00809bb0 g     F .text	00000004 __sfp_lock_acquire
0080b118 g     F .text	000000e4 memchr
00804ca8 g     F .text	000022dc ___vfprintf_internal_r
00809d14 g     F .text	00000310 _free_r
0080a6fc g     F .text	00000010 __locale_mb_cur_max
00813bec g     F .text	00000180 __call_exitprocs
00817a78 g     O .bss	00000004 __mlocale_changed
00815f54 g     O .rwdata	00000004 __malloc_sbrk_base
00800244 g     F .text	0000004c _start
00817aa0 g     O .bss	00000004 _alt_tick_rate
00808f24 g     F .text	00000364 _gcvt
0080be04 g     F .text	00000148 __lshift
00817aa4 g     O .bss	00000004 _alt_nticks
008119e8 g     F .text	00000104 read
00811e7c g     F .text	00000064 alt_sys_init
008032d0 g     F .text	00000124 .hidden __floatsisf
00813ad4 g     F .text	00000118 __register_exitproc
0080ba38 g     F .text	0000028c __multiply
008123b0 g     F .text	00000068 altera_avalon_jtag_uart_close
008048d0 g     F .text	00000028 .hidden __mulsi3
0081449c g       *ABS*	00000000 __ram_rwdata_start
00813da0 g       *ABS*	00000000 __ram_rodata_start
00817aac g     O .bss	00000028 __malloc_current_mallinfo
00802818 g     F .text	00000078 .hidden __eqsf2
0080c318 g     F .text	0000014c __d2b
00811ee0 g     F .text	00000060 altera_avalon_jtag_uart_read_fd
00813768 g     F .text	000000c4 alt_get_fd
0080e6ac g     F .text	00000054 _close_r
00800290 g     F .text	000000b8 generateVector
00813a58 g     F .text	0000007c memcmp
00811fa0 g     F .text	00000050 altera_avalon_jtag_uart_close_fd
00817bd4 g       *ABS*	00000000 __alt_stack_base
00811ff0 g     F .text	00000054 altera_avalon_jtag_uart_ioctl_fd
0080705c g     F .text	00000154 __swsetup_r
0080fd0c g     F .text	000009d0 .hidden __divdf3
00809a70 g     F .text	00000118 __sfp
0080c57c g     F .text	00000078 __copybits
00814938 g     O .rwdata	00000408 __malloc_av_
00809bbc g     F .text	00000004 __sinit_lock_release
00803ca0 g     F .text	0000086c .hidden __muldf3
0080ccac g     F .text	00000054 __sread
00813660 g     F .text	00000108 alt_find_file
00812bec g     F .text	000000a4 alt_dev_llist_insert
00811928 g     F .text	00000024 __malloc_lock
00811b70 g     F .text	000000b0 sbrk
00801db4 g     F .text	00000144 scalbnf
008097b4 g     F .text	0000005c _fflush_r
0080e700 g     F .text	000000dc _calloc_r
00817a74 g       *ABS*	00000000 __bss_start
0080b4a0 g     F .text	00000128 memset
0080065c g     F .text	000000e8 main
008048f8 g     F .text	00000024 fcvt
00817a98 g     O .bss	00000004 alt_envp
00817a80 g     O .bss	00000004 __malloc_max_total_mem
00811f40 g     F .text	00000060 altera_avalon_jtag_uart_write_fd
0080ed98 g     F .text	00000018 __swbuf
00808de4 g     F .text	00000140 ecvtbuf
0080cde0 g     F .text	00000008 __sclose
01000000 g       *ABS*	00000000 __alt_heap_limit
0080e8cc g     F .text	00000014 fclose
008046c4 g     F .text	000001a8 .hidden __truncdfsf2
008073d8 g     F .text	00001688 _dtoa_r
0080a90c g     F .text	0000080c _malloc_r
0080ef0c g     F .text	00000030 __ascii_wctomb
00815f74 g     O .rwdata	00000004 alt_errno
00804998 g     F .text	00000058 ecvtf
0080a4ec g     F .text	000000c4 _fwalk
0080fb58 g     F .text	00000084 .hidden __divsi3
00809bf0 g     F .text	00000124 _malloc_trim_r
00813da0 g       *ABS*	00000000 __CTOR_END__
0080294c g     F .text	00000430 .hidden __mulsf3
0080cde8 g     F .text	000000dc strcmp
00813da0 g       *ABS*	00000000 __flash_rodata_start
00813da0 g       *ABS*	00000000 __DTOR_LIST__
008106dc g     F .text	00000088 .hidden __nedf2
00811e44 g     F .text	00000038 alt_irq_init
00811aec g     F .text	00000084 alt_release_fd
00801ef8 g     F .text	00000018 copysignf
008141a4 g     O .rodata	00000100 .hidden __clz_tab
00817a74 g     O .bss	00000004 _PathLocale
00813958 g     F .text	00000014 atexit
00802890 g     F .text	000000bc .hidden __gesf2
00800348 g     F .text	000001f0 sumVector
0080e64c g     F .text	00000060 _write_r
0080a72c g     F .text	00000018 setlocale
00815f4c g     O .rwdata	00000004 _impure_ptr
00817a90 g     O .bss	00000004 alt_argc
00809598 g     F .text	0000021c __sflush_r
00812cf0 g     F .text	00000060 _do_dtors
0080a718 g     F .text	00000008 __locale_cjk_lang
00800538 g     F .text	00000124 sumVector_custom
00800020 g       .exceptions	00000000 alt_irq_entry
0080c1a8 g     F .text	00000064 __ulp
00809bd8 g     F .text	00000018 __fp_unlock_all
00804974 g     F .text	00000024 ecvt
00815f60 g     O .rwdata	00000008 alt_fs_list
00800020 g       *ABS*	00000000 __ram_exceptions_start
0080a744 g     F .text	0000000c localeconv
00812d84 g     F .text	00000050 alt_ic_isr_register
00815f88 g       *ABS*	00000000 _edata
00817bd4 g       *ABS*	00000000 _end
0080e8e0 g     F .text	00000164 __fputwc
00800244 g       *ABS*	00000000 __ram_exceptions_end
00812418 g     F .text	000000f0 altera_avalon_jtag_uart_ioctl
008139a4 g     F .text	0000009c _fputs_r
00812e5c g     F .text	0000008c alt_ic_irq_disable
0080cd08 g     F .text	0000007c __swrite
00815f58 g     O .rwdata	00000004 __malloc_trim_threshold
0080491c g     F .text	00000058 fcvtf
0080a70c g     F .text	0000000c __locale_msgcharset
0081396c g     F .text	00000038 exit
0080a5b0 g     F .text	000000c4 _fwalk_reent
0080bfac g     F .text	000001fc __mdiff
0080fbdc g     F .text	00000074 .hidden __modsi3
01000000 g       *ABS*	00000000 __alt_data_end
00800020 g     F .exceptions	00000000 alt_exception
00809bb4 g     F .text	00000004 __sfp_lock_release
00800000 g       *ABS*	00000000 __alt_mem_sdram
008049f0 g     F .text	000000a0 gcvt
00813d6c g     F .text	00000034 _exit
00800fe4 g     F .text	00000b04 __kernel_rem_pio2f
00812a3c g     F .text	0000012c alt_alarm_start
0080a750 g     F .text	000001bc __smakebuf_r
00804c10 g     F .text	00000098 strlen
008132ac g     F .text	0000015c open
00810764 g     F .text	000000dc .hidden __gedf2
00815f5c g     O .rwdata	00000004 __wctomb
0080d050 g     F .text	00000018 __sprint_r
00812d50 g     F .text	00000034 alt_icache_flush_all
00801cb0 g     F .text	00000104 floorf
00813a40 g     F .text	00000018 fputs
00815f7c g     O .rwdata	00000004 alt_priority_mask
00812dd4 g     F .text	00000088 alt_ic_irq_enable
00806f84 g     F .text	0000001c __vfprintf_internal
0080ef3c g     F .text	0000005c _wctomb_r
00810934 g     F .text	000008fc .hidden __subdf3
0080b94c g     F .text	000000b0 __lo0bits
00815f80 g     O .rwdata	00000008 alt_alarm_list
00812c90 g     F .text	00000060 _do_ctors
0080ee4c g     F .text	000000c0 wcrtomb
008113c8 g     F .text	000000d8 close
00801f10 g     F .text	000004c8 .hidden __addsf3
00811710 g     F .text	00000084 alt_load
0080ea68 g     F .text	00000080 fputwc
00809bb8 g     F .text	00000004 __sinit_lock_acquire
0080b698 g     F .text	00000148 __multadd
0080b670 g     F .text	00000028 _Bfree



Disassembly of section .entry:

00800000 <__reset>:
#if NIOS2_ICACHE_SIZE > 0 && defined(ALT_ALLOW_CODE_AT_RESET) && (!defined(ALT_SIM_OPTIMIZE) || defined(NIOS2_ECC_PRESENT))
    /* Assume the instruction cache size is always a power of two. */
#if NIOS2_ICACHE_SIZE > 0x8000
    movhi r2, %hi(NIOS2_ICACHE_SIZE)
#else
    movui r2, NIOS2_ICACHE_SIZE
  800000:	00820014 	movui	r2,2048
#endif

0:
    initi r2
  800004:	1001483a 	initi	r2
    addi r2, r2, -NIOS2_ICACHE_LINE_SIZE
  800008:	10bff804 	addi	r2,r2,-32
    bgt r2, zero, 0b
  80000c:	00bffd16 	blt	zero,r2,800004 <__alt_data_end+0xff800004>
 * Jump to the _start entry point in the .text section if reset code
 * is allowed or if optimizing for RTL simulation.
 */
#if defined(ALT_ALLOW_CODE_AT_RESET) || defined(ALT_SIM_OPTIMIZE)
    /* Jump to the _start entry point in the .text section. */
    movhi r1, %hi(_start)
  800010:	00402034 	movhi	at,128
    ori r1, r1, %lo(_start)
  800014:	08409114 	ori	at,at,580
    jmp r1
  800018:	0800683a 	jmp	at
  80001c:	00000000 	call	0 <__alt_mem_sdram-0x800000>

Disassembly of section .exceptions:

00800020 <alt_exception>:

#else /* ALT_EXCEPTION_STACK disabled */
        /* 
         * Reserve space on normal stack for registers about to be pushed.
         */
        addi  sp, sp, -76
  800020:	deffed04 	addi	sp,sp,-76
         * documentation for details).
         *
         * Leave a gap in the stack frame at 4(sp) for the muldiv handler to
         * store zero into.
         */
        stw   ra,  0(sp)
  800024:	dfc00015 	stw	ra,0(sp)
        stw   r1,   8(sp)
  800028:	d8400215 	stw	at,8(sp)
        stw   r2,  12(sp)
  80002c:	d8800315 	stw	r2,12(sp)
        stw   r3,  16(sp)
  800030:	d8c00415 	stw	r3,16(sp)
        stw   r4,  20(sp)
  800034:	d9000515 	stw	r4,20(sp)
        stw   r5,  24(sp)
  800038:	d9400615 	stw	r5,24(sp)
        stw   r6,  28(sp)
  80003c:	d9800715 	stw	r6,28(sp)
        stw   r7,  32(sp)
  800040:	d9c00815 	stw	r7,32(sp)
        rdctl r5, estatus   /* Read early to avoid usage stall */
  800044:	000b307a 	rdctl	r5,estatus
        stw   r8,  36(sp)
  800048:	da000915 	stw	r8,36(sp)
        stw   r9,  40(sp)
  80004c:	da400a15 	stw	r9,40(sp)
        stw   r10, 44(sp)
  800050:	da800b15 	stw	r10,44(sp)
        stw   r11, 48(sp)
  800054:	dac00c15 	stw	r11,48(sp)
        stw   r12, 52(sp)
  800058:	db000d15 	stw	r12,52(sp)
        stw   r13, 56(sp)
  80005c:	db400e15 	stw	r13,56(sp)
        stw   r14, 60(sp)
  800060:	db800f15 	stw	r14,60(sp)
        stw   r15, 64(sp)
  800064:	dbc01015 	stw	r15,64(sp)
        /*
         * ea-4 contains the address of the instruction being executed
         * when the exception occured. For interrupt exceptions, we will
         * will be re-issue the isntruction. Store it in 72(sp)
         */
        stw   r5,  68(sp)  /* estatus */
  800068:	d9401115 	stw	r5,68(sp)
        addi  r15, ea, -4  /* instruction that caused exception */
  80006c:	ebffff04 	addi	r15,ea,-4
        stw   r15,  72(sp)
  800070:	dbc01215 	stw	r15,72(sp)
#else
        /*
         * Test to see if the exception was a software exception or caused 
         * by an external interrupt, and vector accordingly.
         */
        rdctl r4, ipending
  800074:	0009313a 	rdctl	r4,ipending
        andi  r2, r5, 1
  800078:	2880004c 	andi	r2,r5,1
        beq   r2, zero, .Lnot_irq
  80007c:	10000326 	beq	r2,zero,80008c <alt_exception+0x6c>
        beq   r4, zero, .Lnot_irq
  800080:	20000226 	beq	r4,zero,80008c <alt_exception+0x6c>
        /*
         * Now that all necessary registers have been preserved, call 
         * alt_irq_handler() to process the interrupts.
         */

        call alt_irq_handler
  800084:	08000fc0 	call	8000fc <alt_irq_handler>

        .section .exceptions.irqreturn, "xa"

        br    .Lexception_exit
  800088:	00000706 	br	8000a8 <alt_exception+0x88>
         * upon completion, so we write ea (address of instruction *after*
         * the one where the exception occured) into 72(sp). The actual
         * instruction that caused the exception is written in r2, which these
         * handlers will utilize.
         */
        stw ea, 72(sp) /* EA is PC+4 so will skip over instruction causing exception */
  80008c:	df401215 	stw	ea,72(sp)
.Lunknown_16bit:
        addi.n r4, r4, 2 /* Need PC+2 to skip over instruction causing exception */
        stw r4, 72(sp)

#else /* CDX is not Enabled and all instructions are 32bits */
        ldw r2, -4(ea) /* Instruction value that caused exception */
  800090:	e8bfff17 	ldw	r2,-4(ea)
         * debugger is present) or go into an infinite loop since the
         * handling behavior is undefined; in that case we will not return here.
         */

        /* Load exception-causing address as first argument (r4) */
        addi   r4, ea, -4
  800094:	e93fff04 	addi	r4,ea,-4

        /* Call the instruction-exception entry */
        call   alt_instruction_exception_entry
  800098:	08001d00 	call	8001d0 <alt_instruction_exception_entry>
         * instruction
         *
         * Return code was 0: Skip. The instruction after the exception is
         * already stored in 72(sp).
         */
        bne   r2, r0, .Lexception_exit
  80009c:	1000021e 	bne	r2,zero,8000a8 <alt_exception+0x88>

        /*
         * Otherwise, modify 72(sp) to re-issue the instruction that caused the
         * exception.
         */
        addi  r15, ea, -4  /* instruction that caused exception */
  8000a0:	ebffff04 	addi	r15,ea,-4
        stw   r15,  72(sp)
  8000a4:	dbc01215 	stw	r15,72(sp)
        /* 
         * Restore the saved registers, so that all general purpose registers 
         * have been restored to their state at the time the interrupt occured.
         */

        ldw   r5,  68(sp)
  8000a8:	d9401117 	ldw	r5,68(sp)
        ldw   ea,  72(sp)  /* This becomes the PC once eret is executed */
  8000ac:	df401217 	ldw	ea,72(sp)
        ldw   ra,   0(sp)
  8000b0:	dfc00017 	ldw	ra,0(sp)

        wrctl estatus, r5
  8000b4:	2801707a 	wrctl	estatus,r5

        ldw   r1,   8(sp)
  8000b8:	d8400217 	ldw	at,8(sp)
        ldw   r2,  12(sp)
  8000bc:	d8800317 	ldw	r2,12(sp)
        ldw   r3,  16(sp)
  8000c0:	d8c00417 	ldw	r3,16(sp)
        ldw   r4,  20(sp)
  8000c4:	d9000517 	ldw	r4,20(sp)
        ldw   r5,  24(sp)
  8000c8:	d9400617 	ldw	r5,24(sp)
        ldw   r6,  28(sp)
  8000cc:	d9800717 	ldw	r6,28(sp)
        ldw   r7,  32(sp)
  8000d0:	d9c00817 	ldw	r7,32(sp)

#if defined(ALT_EXCEPTION_STACK) && defined(ALT_STACK_CHECK)
        ldw   et, %gprel(alt_exception_old_stack_limit)(gp)
#endif

        ldw   r8,  36(sp)
  8000d4:	da000917 	ldw	r8,36(sp)
        ldw   r9,  40(sp)
  8000d8:	da400a17 	ldw	r9,40(sp)
        ldw   r10, 44(sp)
  8000dc:	da800b17 	ldw	r10,44(sp)
        ldw   r11, 48(sp)
  8000e0:	dac00c17 	ldw	r11,48(sp)
        ldw   r12, 52(sp)
  8000e4:	db000d17 	ldw	r12,52(sp)
        ldw   r13, 56(sp)
  8000e8:	db400e17 	ldw	r13,56(sp)
        ldw   r14, 60(sp)
  8000ec:	db800f17 	ldw	r14,60(sp)
        ldw   r15, 64(sp)
  8000f0:	dbc01017 	ldw	r15,64(sp)
        stw   et, %gprel(alt_stack_limit_value)(gp)
        stw   zero, %gprel(alt_exception_old_stack_limit)(gp)
#endif /* ALT_STACK_CHECK */
        ldw   sp,  76(sp)
#else /* ALT_EXCEPTION_STACK disabled */
        addi  sp, sp, 76
  8000f4:	dec01304 	addi	sp,sp,76

        /*
         * Return to the interrupted instruction.
         */

        eret
  8000f8:	ef80083a 	eret

008000fc <alt_irq_handler>:
 * instruction is present if the macro ALT_CI_INTERRUPT_VECTOR defined.
 */

void alt_irq_handler (void) __attribute__ ((section (".exceptions")));
void alt_irq_handler (void)
{
  8000fc:	defff904 	addi	sp,sp,-28
  800100:	dfc00615 	stw	ra,24(sp)
  800104:	df000515 	stw	fp,20(sp)
  800108:	df000504 	addi	fp,sp,20
  
  /*
   * Notify the operating system that we are at interrupt level.
   */ 
  
  ALT_OS_INT_ENTER();
  80010c:	0001883a 	nop
#ifndef NIOS2_EIC_PRESENT
static ALT_INLINE alt_u32 ALT_ALWAYS_INLINE alt_irq_pending (void)
{
  alt_u32 active;

  NIOS2_READ_IPENDING (active);
  800110:	0005313a 	rdctl	r2,ipending
  800114:	e0bffe15 	stw	r2,-8(fp)

  return active;
  800118:	e0bffe17 	ldw	r2,-8(fp)
   * Consider the case where the high priority interupt is asserted during
   * the interrupt entry sequence for a lower priority interrupt to see why
   * this is the case.
   */

  active = alt_irq_pending ();
  80011c:	e0bffb15 	stw	r2,-20(fp)

  do
  {
    i = 0;
  800120:	e03ffd15 	stw	zero,-12(fp)
    mask = 1;
  800124:	00800044 	movi	r2,1
  800128:	e0bffc15 	stw	r2,-16(fp)
     * called to clear the interrupt condition.
     */

    do
    {
      if (active & mask)
  80012c:	e0fffb17 	ldw	r3,-20(fp)
  800130:	e0bffc17 	ldw	r2,-16(fp)
  800134:	1884703a 	and	r2,r3,r2
  800138:	10001426 	beq	r2,zero,80018c <alt_irq_handler+0x90>
      { 
#ifdef ALT_ENHANCED_INTERRUPT_API_PRESENT
        alt_irq[i].handler(alt_irq[i].context); 
  80013c:	00802074 	movhi	r2,129
  800140:	109eb504 	addi	r2,r2,31444
  800144:	e0fffd17 	ldw	r3,-12(fp)
  800148:	180690fa 	slli	r3,r3,3
  80014c:	10c5883a 	add	r2,r2,r3
  800150:	10c00017 	ldw	r3,0(r2)
  800154:	00802074 	movhi	r2,129
  800158:	109eb504 	addi	r2,r2,31444
  80015c:	e13ffd17 	ldw	r4,-12(fp)
  800160:	200890fa 	slli	r4,r4,3
  800164:	1105883a 	add	r2,r2,r4
  800168:	10800104 	addi	r2,r2,4
  80016c:	10800017 	ldw	r2,0(r2)
  800170:	1009883a 	mov	r4,r2
  800174:	183ee83a 	callr	r3
#else
        alt_irq[i].handler(alt_irq[i].context, i); 
#endif
        break;
  800178:	0001883a 	nop
#ifndef NIOS2_EIC_PRESENT
static ALT_INLINE alt_u32 ALT_ALWAYS_INLINE alt_irq_pending (void)
{
  alt_u32 active;

  NIOS2_READ_IPENDING (active);
  80017c:	0005313a 	rdctl	r2,ipending
  800180:	e0bfff15 	stw	r2,-4(fp)

  return active;
  800184:	e0bfff17 	ldw	r2,-4(fp)
  800188:	00000706 	br	8001a8 <alt_irq_handler+0xac>
      }
      mask <<= 1;
  80018c:	e0bffc17 	ldw	r2,-16(fp)
  800190:	1085883a 	add	r2,r2,r2
  800194:	e0bffc15 	stw	r2,-16(fp)
      i++;
  800198:	e0bffd17 	ldw	r2,-12(fp)
  80019c:	10800044 	addi	r2,r2,1
  8001a0:	e0bffd15 	stw	r2,-12(fp)

    } while (1);
  8001a4:	003fe106 	br	80012c <__alt_data_end+0xff80012c>

    active = alt_irq_pending ();
  8001a8:	e0bffb15 	stw	r2,-20(fp)
    
  } while (active);
  8001ac:	e0bffb17 	ldw	r2,-20(fp)
  8001b0:	103fdb1e 	bne	r2,zero,800120 <__alt_data_end+0xff800120>

  /*
   * Notify the operating system that interrupt processing is complete.
   */ 

  ALT_OS_INT_EXIT();
  8001b4:	0001883a 	nop
}
  8001b8:	0001883a 	nop
  8001bc:	e037883a 	mov	sp,fp
  8001c0:	dfc00117 	ldw	ra,4(sp)
  8001c4:	df000017 	ldw	fp,0(sp)
  8001c8:	dec00204 	addi	sp,sp,8
  8001cc:	f800283a 	ret

008001d0 <alt_instruction_exception_entry>:
 * that handler if it has been registered. Absent a handler, it will
 * break break or hang as discussed below.
 */
int 
alt_instruction_exception_entry (alt_u32 exception_pc)
{
  8001d0:	defffb04 	addi	sp,sp,-20
  8001d4:	dfc00415 	stw	ra,16(sp)
  8001d8:	df000315 	stw	fp,12(sp)
  8001dc:	df000304 	addi	fp,sp,12
  8001e0:	e13fff15 	stw	r4,-4(fp)
 * NIOS2_EXCEPTION_CAUSE_NOT_PRESENT. Your handling routine should
 * check the validity of the cause argument before proceeding.
 */
#ifdef NIOS2_HAS_EXTRA_EXCEPTION_INFO
  /* Get exception cause & "badaddr" */
  NIOS2_READ_EXCEPTION(cause);
  8001e4:	000531fa 	rdctl	r2,exception
  8001e8:	e0bffd15 	stw	r2,-12(fp)
  cause = ( (cause & NIOS2_EXCEPTION_REG_CAUSE_MASK) >>
  8001ec:	e0bffd17 	ldw	r2,-12(fp)
  8001f0:	10801f0c 	andi	r2,r2,124
  8001f4:	1004d0ba 	srli	r2,r2,2
  8001f8:	e0bffd15 	stw	r2,-12(fp)
              NIOS2_EXCEPTION_REG_CAUSE_OFST );

  NIOS2_READ_BADADDR(badaddr);
  8001fc:	0005333a 	rdctl	r2,badaddr
  800200:	e0bffe15 	stw	r2,-8(fp)
#else
  cause = NIOS2_EXCEPTION_CAUSE_NOT_PRESENT;
  badaddr = 0;
#endif /* NIOS2_HAS_EXTRA_EXCEPTION_INFO */

  if(alt_instruction_exception_handler) {
  800204:	d0a6d817 	ldw	r2,-25760(gp)
  800208:	10000726 	beq	r2,zero,800228 <alt_instruction_exception_entry+0x58>
     * Call handler. Its return value indicates whether the exception-causing
     * instruction should be re-issued. The code that called us,
     * alt_eceptions_entry.S, will look at this value and adjust the ea
     * register as necessary
     */
    return alt_instruction_exception_handler(cause, exception_pc, badaddr);
  80020c:	d0a6d817 	ldw	r2,-25760(gp)
  800210:	e0fffd17 	ldw	r3,-12(fp)
  800214:	e1bffe17 	ldw	r6,-8(fp)
  800218:	e17fff17 	ldw	r5,-4(fp)
  80021c:	1809883a 	mov	r4,r3
  800220:	103ee83a 	callr	r2
  800224:	00000206 	br	800230 <alt_instruction_exception_entry+0x60>
   *    (a peripheral which negates its interrupt output before its
   *    interrupt handler has been executed will cause spurious interrupts)
   */
  else {
#ifdef NIOS2_HAS_DEBUG_STUB
    NIOS2_BREAK();
  800228:	003da03a 	break	0
      ;
#endif /* NIOS2_HAS_DEBUG_STUB */
  }

  /* We should not get here. Remove compiler warning. */
  return NIOS2_EXCEPTION_RETURN_REISSUE_INST;
  80022c:	0005883a 	mov	r2,zero
}
  800230:	e037883a 	mov	sp,fp
  800234:	dfc00117 	ldw	ra,4(sp)
  800238:	df000017 	ldw	fp,0(sp)
  80023c:	dec00204 	addi	sp,sp,8
  800240:	f800283a 	ret

Disassembly of section .text:

00800244 <_start>:

    /* Assume the data cache size is always a power of two. */
#if NIOS2_DCACHE_SIZE > 0x8000
    movhi r2, %hi(NIOS2_DCACHE_SIZE)
#else
    movui r2, NIOS2_DCACHE_SIZE
  800244:	00820014 	movui	r2,2048
#endif

0:
    initd 0(r2)
  800248:	10000033 	initd	0(r2)
#ifdef NIOS2_ECC_PRESENT
    addi r2, r2, -4
#else
    addi r2, r2, -NIOS2_DCACHE_LINE_SIZE
  80024c:	10bff804 	addi	r2,r2,-32
#endif
    bgt r2, zero, 0b
  800250:	00bffd16 	blt	zero,r2,800248 <__alt_data_end+0xff800248>

    /*
     * Now that the caches are initialized, set up the stack pointer and global pointer.
     * The values provided by the linker are assumed to be correctly aligned.
     */
    movhi sp, %hi(__alt_stack_pointer)
  800254:	06c04034 	movhi	sp,256
    ori sp, sp, %lo(__alt_stack_pointer)
  800258:	dec00014 	ori	sp,sp,0
    movhi gp, %hi(_gp)
  80025c:	06802074 	movhi	gp,129
    ori gp, gp, %lo(_gp)
  800260:	d6b7d214 	ori	gp,gp,57160
 */
#ifndef ALT_SIM_OPTIMIZE
    /* Log that the BSS is about to be cleared. */
    ALT_LOG_PUTS(alt_log_msg_bss)

    movhi r2, %hi(__bss_start)
  800264:	00802074 	movhi	r2,129
    ori r2, r2, %lo(__bss_start)
  800268:	109e9d14 	ori	r2,r2,31348

    movhi r3, %hi(__bss_end)
  80026c:	00c02074 	movhi	r3,129
    ori r3, r3, %lo(__bss_end)
  800270:	18def514 	ori	r3,r3,31700

    beq r2, r3, 1f
  800274:	10c00326 	beq	r2,r3,800284 <_start+0x40>

0:
    stw zero, (r2)
  800278:	10000015 	stw	zero,0(r2)
    addi r2, r2, 4
  80027c:	10800104 	addi	r2,r2,4
    bltu r2, r3, 0b
  800280:	10fffd36 	bltu	r2,r3,800278 <__alt_data_end+0xff800278>
     * section aren't defined until alt_load() has been called).
     */
    mov   et, zero
#endif

    call alt_load
  800284:	08117100 	call	811710 <alt_load>

    /* Log that alt_main is about to be called. */
    ALT_LOG_PUTS(alt_log_msg_alt_main)

    /* Call the C entry point. It should never return. */
    call alt_main
  800288:	08118ac0 	call	8118ac <alt_main>

0080028c <alt_after_alt_main>:

    /* Wait in infinite loop in case alt_main does return. */
alt_after_alt_main:
    br alt_after_alt_main
  80028c:	003fff06 	br	80028c <__alt_data_end+0xff80028c>

00800290 <generateVector>:
//#define step 5
//#define N 261121
// double cosine[2041] = {0.540302305868140,0.541123797109932,0.541944772295898,0.542765230643095,0.543585171369073,0.544404593691875,0.545223496830040,0.546041880002600,0.546859742429085,0.547677083329521,0.548493901924430,0.549310197434834,0.550125969082252,0.550941216088704,0.551755937676711,0.552570133069293,0.553383801489972,0.554196942162775,0.555009554312230,0.555821637163370,0.556633189941732,0.557444211873359,0.558254702184801,0.559064660103114,0.559874084855861,0.560682975671116,0.561491331777460,0.562299152403984,0.563106436780292,0.563913184136495,0.564719393703221,0.565525064711608,0.566330196393309,0.567134787980489,0.567938838705831,0.568742347802533,0.569545314504308,0.570347738045387,0.571149617660521,0.571950952584976,0.572751742054542,0.573551985305524,0.574351681574753,0.575150830099578,0.575949430117871,0.576747480868030,0.577544981588972,0.578341931520143,0.579138329901511,0.579934175973572,0.580729468977349,0.581524208154390,0.582318392746773,0.583112021997106,0.583905095148524,0.584697611444693,0.585489570129812,0.586280970448610,0.587071811646349,0.587862092968823,0.588651813662362,0.589440972973830,0.590229570150626,0.591017604440684,0.591805075092478,0.592591981355015,0.593378322477845,0.594164097711054,0.594949306305268,0.595733947511655,0.596518020581921,0.597301524768317,0.598084459323635,0.598866823501210,0.599648616554923,0.600429837739196,0.601210486309000,0.601990561519849,0.602770062627807,0.603548988889484,0.604327339562036,0.605105113903173,0.605882311171149,0.606658930624772,0.607434971523400,0.608210433126943,0.608985314695863,0.609759615491175,0.610533334774449,0.611306471807809,0.612079025853933,0.612850996176058,0.613622382037973,0.614393182704030,0.615163397439135,0.615933025508754,0.616702066178912,0.617470518716196,0.618238382387752,0.619005656461288,0.619772340205074,0.620538432887945,0.621303933779297,0.622068842149091,0.622833157267855,0.623596878406681,0.624360004837227,0.625122535831720,0.625884470662953,0.626645808604289,0.627406548929659,0.628166690913565,0.628926233831079,0.629685176957845,0.630443519570078,0.631201260944566,0.631958400358671,0.632714937090328,0.633470870418048,0.634226199620916,0.634980923978596,0.635735042771325,0.636488555279920,0.637241460785775,0.637993758570864,0.638745447917740,0.639496528109535,0.640246998429965,0.640996858163325,0.641746106594493,0.642494743008930,0.643242766692681,0.643990176932375,0.644736973015226,0.645483154229034,0.646228719862185,0.646973669203652,0.647718001542996,0.648461716170368,0.649204812376504,0.649947289452734,0.650689146690977,0.651430383383741,0.652170998824130,0.652910992305836,0.653650363123147,0.654389110570945,0.655127233944705,0.655864732540497,0.656601605654989,0.657337852585443,0.658073472629720,0.658808465086277,0.659542829254172,0.660276564433059,0.661009669923196,0.661742145025438,0.662473989041242,0.663205201272667,0.663935781022376,0.664665727593633,0.665395040290307,0.666123718416872,0.666851761278405,0.667579168180591,0.668305938429720,0.669032071332692,0.669757566197010,0.670482422330791,0.671206639042756,0.671930215642240,0.672653151439186,0.673375445744148,0.674097097868293,0.674818107123400,0.675538472821862,0.676258194276683,0.676977270801485,0.677695701710502,0.678413486318585,0.679130623941202,0.679847113894437,0.680562955494991,0.681278148060186,0.681992690907961,0.682706583356873,0.683419824726104,0.684132414335452,0.684844351505339,0.685555635556809,0.686266265811530,0.686976241591790,0.687685562220505,0.688394227021213,0.689102235318080,0.689809586435896,0.690516279700078,0.691222314436672,0.691927689972350,0.692632405634413,0.693336460750793,0.694039854650051,0.694742586661377,0.695444656114594,0.696146062340157,0.696846804669153,0.697546882433301,0.698246294964956,0.698945041597106,0.699643121663374,0.700340534498019,0.701037279435937,0.701733355812660,0.702428762964357,0.703123500227838,0.703817566940548,0.704510962440575,0.705203686066644,0.705895737158124,0.706587115055023,0.707277819097991,0.707967848628322,0.708657202987953,0.709345881519464,0.710033883566080,0.710721208471671,0.711407855580754,0.712093824238490,0.712779113790689,0.713463723583807,0.714147652964952,0.714830901281875,0.715513467882982,0.716195352117325,0.716876553334610,0.717557070885192,0.718236904120080,0.718916052390933,0.719594515050066,0.720272291450447,0.720949380945696,0.721625782890093,0.722301496638569,0.722976521546713,0.723650856970773,0.724324502267651,0.724997456794909,0.725669719910769,0.726341290974109,0.727012169344470,0.727682354382052,0.728351845447718,0.729020641902991,0.729688743110057,0.730356148431764,0.731022857231627,0.731688868873821,0.732354182723189,0.733018798145238,0.733682714506141,0.734345931172738,0.735008447512537,0.735670262893714,0.736331376685110,0.736991788256241,0.737651496977287,0.738310502219102,0.738968803353210,0.739626399751805,0.740283290787755,0.740939475834600,0.741594954266553,0.742249725458501,0.742903788786006,0.743557143625304,0.744209789353308,0.744861725347607,0.745512950986464,0.746163465648825,0.746813268714309,0.747462359563216,0.748110737576525,0.748758402135895,0.749405352623664,0.750051588422852,0.750697108917161,0.751341913490975,0.751986001529360,0.752629372418067,0.753272025543528,0.753913960292862,0.754555176053872,0.755195672215048,0.755835448165565,0.756474503295285,0.757112836994757,0.757750448655219,0.758387337668598,0.759023503427508,0.759658945325256,0.760293662755835,0.760927655113933,0.761560921794927,0.762193462194887,0.762825275710576,0.763456361739450,0.764086719679658,0.764716348930043,0.765345248890145,0.765973418960198,0.766600858541132,0.767227567034575,0.767853543842850,0.768478788368980,0.769103300016686,0.769727078190385,0.770350122295198,0.770972431736943,0.771594005922139,0.772214844258008,0.772834946152472,0.773454311014155,0.774072938252385,0.774690827277194,0.775307977499317,0.775924388330193,0.776540059181967,0.777154989467490,0.777769178600318,0.778382625994716,0.778995331065653,0.779607293228810,0.780218511900574,0.780828986498041,0.781438716439017,0.782047701142019,0.782655940026273,0.783263432511718,0.783870178019003,0.784476175969492,0.785081425785260,0.785685926889095,0.786289678704500,0.786892680655693,0.787494932167606,0.788096432665888,0.788697181576903,0.789297178327732,0.789896422346174,0.790494913060746,0.791092649900681,0.791689632295934,0.792285859677179,0.792881331475807,0.793476047123934,0.794070006054395,0.794663207700745,0.795255651497264,0.795847336878954,0.796438263281539,0.797028430141468,0.797617836895915,0.798206482982776,0.798794367840676,0.799381490908964,0.799967851627715,0.800553449437733,0.801138283780548,0.801722354098418,0.802305659834332,0.802888200432004,0.803469975335882,0.804050983991141,0.804631225843688,0.805210700340163,0.805789406927934,0.806367345055104,0.806944514170509,0.807520913723717,0.808096543165031,0.808671401945487,0.809245489516859,0.809818805331653,0.810391348843113,0.810963119505218,0.811534116772686,0.812104340100972,0.812673788946268,0.813242462765505,0.813810361016355,0.814377483157226,0.814943828647269,0.815509396946376,0.816074187515177,0.816638199815048,0.817201433308103,0.817763887457202,0.818325561725947,0.818886455578683,0.819446568480501,0.820005899897234,0.820564449295464,0.821122216142515,0.821679199906461,0.822235400056120,0.822790816061057,0.823345447391589,0.823899293518775,0.824452353914429,0.825004628051110,0.825556115402130,0.826106815441547,0.826656727644175,0.827205851485576,0.827754186442064,0.828301731990708,0.828848487609326,0.829394452776492,0.829939626971533,0.830484009674531,0.831027600366321,0.831570398528496,0.832112403643402,0.832653615194144,0.833194032664581,0.833733655539333,0.834272483303773,0.834810515444036,0.835347751447015,0.835884190800362,0.836419832992487,0.836954677512564,0.837488723850524,0.838021971497061,0.838554419943631,0.839086068682451,0.839616917206502,0.840146965009527,0.840676211586033,0.841204656431292,0.841732299041338,0.842259138912974,0.842785175543765,0.843310408432043,0.843834837076908,0.844358460978226,0.844881279636629,0.845403292553520,0.845924499231068,0.846444899172211,0.846964491880658,0.847483276860886,0.848001253618144,0.848518421658451,0.849034780488595,0.849550329616141,0.850065068549420,0.850578996797541,0.851092113870384,0.851604419278600,0.852115912533619,0.852626593147642,0.853136460633647,0.853645514505385,0.854153754277385,0.854661179464953,0.855167789584169,0.855673584151893,0.856178562685761,0.856682724704188,0.857186069726369,0.857688597272276,0.858190306862660,0.858691198019056,0.859191270263775,0.859690523119913,0.860188956111343,0.860686568762724,0.861183360599495,0.861679331147879,0.862174479934881,0.862668806488290,0.863162310336680,0.863654991009410,0.864146848036622,0.864637880949245,0.865128089278993,0.865617472558368,0.866106030320657,0.866593762099935,0.867080667431065,0.867566745849698,0.868051996892274,0.868536420096020,0.869020014998956,0.869502781139889,0.869984718058417,0.870465825294930,0.870946102390609,0.871425548887424,0.871904164328140,0.872381948256315,0.872858900216298,0.873335019753232,0.873810306413055,0.874284759742496,0.874758379289084,0.875231164601138,0.875703115227776,0.876174230718911,0.876644510625252,0.877113954498305,0.877582561890373,0.878050332354558,0.878517265444759,0.878983360715674,0.879448617722800,0.879913036022433,0.880376615171670,0.880839354728407,0.881301254251341,0.881762313299970,0.882222531434596,0.882681908216318,0.883140443207042,0.883598135969475,0.884054986067126,0.884510993064309,0.884966156526143,0.885420476018550,0.885873951108257,0.886326581362796,0.886778366350505,0.887229305640530,0.887679398802820,0.888128645408133,0.888577045028036,0.889024597234899,0.889471301601905,0.889917157703043,0.890362165113111,0.890806323407717,0.891249632163280,0.891692090957026,0.892133699366994,0.892574456972035,0.893014363351808,0.893453418086786,0.893891620758254,0.894328970948309,0.894765468239862,0.895201112216637,0.895635902463171,0.896069838564815,0.896502920107737,0.896935146678918,0.897366517866153,0.897797033258056,0.898226692444055,0.898655495014395,0.899083440560138,0.899510528673164,0.899936758946170,0.900362130972671,0.900786644346999,0.901210298664309,0.901633093520572,0.902055028512579,0.902476103237942,0.902896317295092,0.903315670283282,0.903734161802587,0.904151791453901,0.904568558838942,0.904984463560249,0.905399505221186,0.905813683425936,0.906226997779511,0.906639447887741,0.907051033357284,0.907461753795622,0.907871608811061,0.908280598012733,0.908688721010595,0.909095977415431,0.909502366838851,0.909907888893293,0.910312543192019,0.910716329349122,0.911119246979521,0.911521295698964,0.911922475124028,0.912322784872118,0.912722224561469,0.913120793811145,0.913518492241042,0.913915319471884,0.914311275125228,0.914706358823461,0.915100570189802,0.915493908848301,0.915886374423843,0.916277966542141,0.916668684829746,0.917058528914039,0.917447498423235,0.917835592986385,0.918222812233373,0.918609155794918,0.918994623302574,0.919379214388730,0.919762928686613,0.920145765830282,0.920527725454638,0.920908807195413,0.921289010689181,0.921668335573352,0.922046781486173,0.922424348066729,0.922801034954946,0.923176841791586,0.923551768218253,0.923925813877389,0.924298978412276,0.924671261467036,0.925042662686634,0.925413181716872,0.925782818204397,0.926151571796696,0.926519442142098,0.926886428889775,0.927252531689740,0.927617750192852,0.927982084050810,0.928345532916159,0.928708096442286,0.929069774283425,0.929430566094653,0.929790471531891,0.930149490251907,0.930507621912314,0.930864866171572,0.931221222688985,0.931576691124706,0.931931271139734,0.932284962395914,0.932637764555941,0.932989677283356,0.933340700242548,0.933690833098758,0.934040075518071,0.934388427167424,0.934735887714604,0.935082456828245,0.935428134177835,0.935772919433709,0.936116812267055,0.936459812349911,0.936801919355167,0.937143132956563,0.937483452828694,0.937822878647005,0.938161410087794,0.938499046828213,0.938835788546266,0.939171634920811,0.939506585631560,0.939840640359080,0.940173798784791,0.940506060590969,0.940837425460743,0.941167893078100,0.941497463127881,0.941826135295784,0.942153909268363,0.942480784733028,0.942806761378046,0.943131838892541,0.943456016966497,0.943779295290752,0.944101673557004,0.944423151457810,0.944743728686584,0.945063404937600,0.945382179905991,0.945700053287749,0.946017024779727,0.946333094079638,0.946648260886053,0.946962524898408,0.947275885816995,0.947588343342971,0.947899897178354,0.948210547026022,0.948520292589717,0.948829133574042,0.949137069684463,0.949444100627310,0.949750226109776,0.950055445839916,0.950359759526650,0.950663166879762,0.950965667609900,0.951267261428578,0.951567948048172,0.951867727181926,0.952166598543948,0.952464561849213,0.952761616813559,0.953057763153695,0.953353000587191,0.953647328832489,0.953940747608895,0.954233256636582,0.954524855636594,0.954815544330838,0.955105322442093,0.955394189694005,0.955682145811089,0.955969190518728,0.956255323543175,0.956540544611553,0.956824853451853,0.957108249792938,0.957390733364540,0.957672303897260,0.957952961122574,0.958232704772825,0.958511534581229,0.958789450281873,0.959066451609716,0.959342538300589,0.959617710091195,0.959891966719111,0.960165307922784,0.960437733441536,0.960709243015562,0.960979836385930,0.961249513294583,0.961518273484336,0.961786116698879,0.962053042682778,0.962319051181473,0.962584141941276,0.962848314709380,0.963111569233848,0.963373905263621,0.963635322548517,0.963895820839229,0.964155399887325,0.964414059445253,0.964671799266335,0.964928619104771,0.965184518715639,0.965439497854895,0.965693556279370,0.965946693746776,0.966198910015703,0.966450204845618,0.966700577996868,0.966950029230678,0.967198558309153,0.967446164995278,0.967692849052916,0.967938610246811,0.968183448342587,0.968427363106748,0.968670354306679,0.968912421710645,0.969153565087793,0.969393784208151,0.969633078842628,0.969871448763015,0.970108893741985,0.970345413553092,0.970581007970774,0.970815676770349,0.971049419728022,0.971282236620877,0.971514127226882,0.971745091324890,0.971975128694635,0.972204239116738,0.972432422372701,0.972659678244913,0.972886006516644,0.973111406972052,0.973335879396178,0.973559423574948,0.973782039295174,0.974003726344554,0.974224484511669,0.974444313585989,0.974663213357868,0.974881183618547,0.975098224160154,0.975314334775702,0.975529515259093,0.975743765405114,0.975957085009441,0.976169473868635,0.976380931780148,0.976591458542317,0.976801053954369,0.977009717816417,0.977217449929465,0.977424250095403,0.977630118117012,0.977835053797960,0.978039056942806,0.978242127356996,0.978444264846869,0.978645469219651,0.978845740283458,0.979045077847297,0.979243481721065,0.979440951715548,0.979637487642426,0.979833089314267,0.980027756544531,0.980221489147568,0.980414286938621,0.980606149733823,0.980797077350200,0.980987069605669,0.981176126319040,0.981364247310013,0.981551432399183,0.981737681408036,0.981922994158951,0.982107370475200,0.982290810180949,0.982473313101255,0.982654879062071,0.982835507890241,0.983015199413504,0.983193953460493,0.983371769860736,0.983548648444652,0.983724589043558,0.983899591489664,0.984073655616074,0.984246781256788,0.984418968246700,0.984590216421600,0.984760525618173,0.984929895674000,0.985098326427556,0.985265817718214,0.985432369386241,0.985597981272802,0.985762653219957,0.985926385070661,0.986089176668770,0.986251027859031,0.986411938487093,0.986571908399498,0.986730937443687,0.986889025467999,0.987046172321669,0.987202377854830,0.987357641918514,0.987511964364648,0.987665345046059,0.987817783816472,0.987969280530510,0.988119835043695,0.988269447212447,0.988418116894084,0.988565843946824,0.988712628229784,0.988858469602978,0.989003367927323,0.989147323064632,0.989290334877618,0.989432403229896,0.989573527985978,0.989713709011277,0.989852946172106,0.989991239335678,0.990128588370107,0.990264993144406,0.990400453528491,0.990534969393174,0.990668540610173,0.990801167052104,0.990932848592484,0.991063585105732,0.991193376467168,0.991322222553014,0.991450123240392,0.991577078407326,0.991703087932744,0.991828151696472,0.991952269579240,0.992075441462681,0.992197667229329,0.992318946762620,0.992439279946893,0.992558666667390,0.992677106810253,0.992794600262531,0.992911146912172,0.993026746648029,0.993141399359858,0.993255104938317,0.993367863274967,0.993479674262276,0.993590537793610,0.993700453763242,0.993809422066349,0.993917442599010,0.994024515258209,0.994130639941833,0.994235816548674,0.994340044978428,0.994443325131694,0.994545656909977,0.994647040215687,0.994747474952135,0.994846961023541,0.994945498335026,0.995043086792619,0.995139726303252,0.995235416774762,0.995330158115892,0.995423950236289,0.995516793046506,0.995608686458002,0.995699630383139,0.995789624735188,0.995878669428323,0.995966764377623,0.996053909499076,0.996140104709573,0.996225349926913,0.996309645069798,0.996392990057839,0.996475384811552,0.996556829252359,0.996637323302589,0.996716866885476,0.996795459925162,0.996873102346695,0.996949794076029,0.997025535040025,0.997100325166451,0.997174164383982,0.997247052622198,0.997318989811589,0.997389975883550,0.997460010770383,0.997529094405298,0.997597226722411,0.997664407656746,0.997730637144235,0.997795915121717,0.997860241526936,0.997923616298548,0.997986039376113,0.998047510700099,0.998108030211884,0.998167597853751,0.998226213568891,0.998283877301406,0.998340588996302,0.998396348599495,0.998451156057809,0.998505011318974,0.998557914331631,0.998609865045327,0.998660863410519,0.998710909378570,0.998760002901753,0.998808143933249,0.998855332427146,0.998901568338443,0.998946851623045,0.998991182237767,0.999034560140332,0.999076985289372,0.999118457644426,0.999158977165944,0.999198543815283,0.999237157554709,0.999274818347398,0.999311526157434,0.999347280949808,0.999382082690424,0.999415931346090,0.999448826884528,0.999480769274364,0.999511758485136,0.999541794487292,0.999570877252185,0.999599006752081,0.999626182960154,0.999652405850485,0.999677675398068,0.999701991578803,0.999725354369500,0.999747763747878,0.999769219692568,0.999789722183106,0.999809271199940,0.999827866724426,0.999845508738831,0.999862197226330,0.999877932171007,0.999892713557856,0.999906541372781,0.999919415602595,0.999931336235019,0.999942303258685,0.999952316663135,0.999961376438818,0.999969482577095,0.999976635070235,0.999982833911417,0.999988079094730,0.999992370615170,0.999995708468646,0.999998092651974,0.999999523162880,1,0.999999523162880,0.999998092651974,0.999995708468646,0.999992370615170,0.999988079094730,0.999982833911417,0.999976635070235,0.999969482577095,0.999961376438818,0.999952316663135,0.999942303258685,0.999931336235019,0.999919415602595,0.999906541372781,0.999892713557856,0.999877932171007,0.999862197226330,0.999845508738831,0.999827866724426,0.999809271199940,0.999789722183106,0.999769219692568,0.999747763747878,0.999725354369500,0.999701991578803,0.999677675398068,0.999652405850485,0.999626182960154,0.999599006752081,0.999570877252185,0.999541794487292,0.999511758485136,0.999480769274364,0.999448826884528,0.999415931346090,0.999382082690424,0.999347280949808,0.999311526157434,0.999274818347398,0.999237157554709,0.999198543815283,0.999158977165944,0.999118457644426,0.999076985289372,0.999034560140332,0.998991182237767,0.998946851623045,0.998901568338443,0.998855332427146,0.998808143933249,0.998760002901753,0.998710909378570,0.998660863410519,0.998609865045327,0.998557914331631,0.998505011318974,0.998451156057809,0.998396348599495,0.998340588996302,0.998283877301406,0.998226213568891,0.998167597853751,0.998108030211884,0.998047510700099,0.997986039376113,0.997923616298548,0.997860241526936,0.997795915121717,0.997730637144235,0.997664407656746,0.997597226722411,0.997529094405298,0.997460010770383,0.997389975883550,0.997318989811589,0.997247052622198,0.997174164383982,0.997100325166451,0.997025535040025,0.996949794076029,0.996873102346695,0.996795459925162,0.996716866885476,0.996637323302589,0.996556829252359,0.996475384811552,0.996392990057839,0.996309645069798,0.996225349926913,0.996140104709573,0.996053909499076,0.995966764377623,0.995878669428323,0.995789624735188,0.995699630383139,0.995608686458002,0.995516793046506,0.995423950236289,0.995330158115892,0.995235416774762,0.995139726303252,0.995043086792619,0.994945498335026,0.994846961023541,0.994747474952135,0.994647040215687,0.994545656909977,0.994443325131694,0.994340044978428,0.994235816548674,0.994130639941833,0.994024515258209,0.993917442599010,0.993809422066349,0.993700453763242,0.993590537793610,0.993479674262276,0.993367863274967,0.993255104938317,0.993141399359858,0.993026746648029,0.992911146912172,0.992794600262531,0.992677106810253,0.992558666667390,0.992439279946893,0.992318946762620,0.992197667229329,0.992075441462681,0.991952269579240,0.991828151696472,0.991703087932744,0.991577078407326,0.991450123240392,0.991322222553014,0.991193376467168,0.991063585105732,0.990932848592484,0.990801167052104,0.990668540610173,0.990534969393174,0.990400453528491,0.990264993144406,0.990128588370107,0.989991239335678,0.989852946172106,0.989713709011277,0.989573527985978,0.989432403229896,0.989290334877618,0.989147323064632,0.989003367927323,0.988858469602978,0.988712628229784,0.988565843946824,0.988418116894084,0.988269447212447,0.988119835043695,0.987969280530510,0.987817783816472,0.987665345046059,0.987511964364648,0.987357641918514,0.987202377854830,0.987046172321669,0.986889025467999,0.986730937443687,0.986571908399498,0.986411938487093,0.986251027859031,0.986089176668770,0.985926385070661,0.985762653219957,0.985597981272802,0.985432369386241,0.985265817718214,0.985098326427556,0.984929895674000,0.984760525618173,0.984590216421600,0.984418968246700,0.984246781256788,0.984073655616074,0.983899591489664,0.983724589043558,0.983548648444652,0.983371769860736,0.983193953460493,0.983015199413504,0.982835507890241,0.982654879062071,0.982473313101255,0.982290810180949,0.982107370475200,0.981922994158951,0.981737681408036,0.981551432399183,0.981364247310013,0.981176126319040,0.980987069605669,0.980797077350200,0.980606149733823,0.980414286938621,0.980221489147568,0.980027756544531,0.979833089314267,0.979637487642426,0.979440951715548,0.979243481721065,0.979045077847297,0.978845740283458,0.978645469219651,0.978444264846869,0.978242127356996,0.978039056942806,0.977835053797960,0.977630118117012,0.977424250095403,0.977217449929465,0.977009717816417,0.976801053954369,0.976591458542317,0.976380931780148,0.976169473868635,0.975957085009441,0.975743765405114,0.975529515259093,0.975314334775702,0.975098224160154,0.974881183618547,0.974663213357868,0.974444313585989,0.974224484511669,0.974003726344554,0.973782039295174,0.973559423574948,0.973335879396178,0.973111406972052,0.972886006516644,0.972659678244913,0.972432422372701,0.972204239116738,0.971975128694635,0.971745091324890,0.971514127226882,0.971282236620877,0.971049419728022,0.970815676770349,0.970581007970774,0.970345413553092,0.970108893741985,0.969871448763015,0.969633078842628,0.969393784208151,0.969153565087793,0.968912421710645,0.968670354306679,0.968427363106748,0.968183448342587,0.967938610246811,0.967692849052916,0.967446164995278,0.967198558309153,0.966950029230678,0.966700577996868,0.966450204845618,0.966198910015703,0.965946693746776,0.965693556279370,0.965439497854895,0.965184518715639,0.964928619104771,0.964671799266335,0.964414059445253,0.964155399887325,0.963895820839229,0.963635322548517,0.963373905263621,0.963111569233848,0.962848314709380,0.962584141941276,0.962319051181473,0.962053042682778,0.961786116698879,0.961518273484336,0.961249513294583,0.960979836385930,0.960709243015562,0.960437733441536,0.960165307922784,0.959891966719111,0.959617710091195,0.959342538300589,0.959066451609716,0.958789450281873,0.958511534581229,0.958232704772825,0.957952961122574,0.957672303897260,0.957390733364540,0.957108249792938,0.956824853451853,0.956540544611553,0.956255323543175,0.955969190518728,0.955682145811089,0.955394189694005,0.955105322442093,0.954815544330838,0.954524855636594,0.954233256636582,0.953940747608895,0.953647328832489,0.953353000587191,0.953057763153695,0.952761616813559,0.952464561849213,0.952166598543948,0.951867727181926,0.951567948048172,0.951267261428578,0.950965667609900,0.950663166879762,0.950359759526650,0.950055445839916,0.949750226109776,0.949444100627310,0.949137069684463,0.948829133574042,0.948520292589717,0.948210547026022,0.947899897178354,0.947588343342971,0.947275885816995,0.946962524898408,0.946648260886053,0.946333094079638,0.946017024779727,0.945700053287749,0.945382179905991,0.945063404937600,0.944743728686584,0.944423151457810,0.944101673557004,0.943779295290752,0.943456016966497,0.943131838892541,0.942806761378046,0.942480784733028,0.942153909268363,0.941826135295784,0.941497463127881,0.941167893078100,0.940837425460743,0.940506060590969,0.940173798784791,0.939840640359080,0.939506585631560,0.939171634920811,0.938835788546266,0.938499046828213,0.938161410087794,0.937822878647005,0.937483452828694,0.937143132956563,0.936801919355167,0.936459812349911,0.936116812267055,0.935772919433709,0.935428134177835,0.935082456828245,0.934735887714604,0.934388427167424,0.934040075518071,0.933690833098758,0.933340700242548,0.932989677283356,0.932637764555941,0.932284962395914,0.931931271139734,0.931576691124706,0.931221222688985,0.930864866171572,0.930507621912314,0.930149490251907,0.929790471531891,0.929430566094653,0.929069774283425,0.928708096442286,0.928345532916159,0.927982084050810,0.927617750192852,0.927252531689740,0.926886428889775,0.926519442142098,0.926151571796696,0.925782818204397,0.925413181716872,0.925042662686634,0.924671261467036,0.924298978412276,0.923925813877389,0.923551768218253,0.923176841791586,0.922801034954946,0.922424348066729,0.922046781486173,0.921668335573352,0.921289010689181,0.920908807195413,0.920527725454638,0.920145765830282,0.919762928686613,0.919379214388730,0.918994623302574,0.918609155794918,0.918222812233373,0.917835592986385,0.917447498423235,0.917058528914039,0.916668684829746,0.916277966542141,0.915886374423843,0.915493908848301,0.915100570189802,0.914706358823461,0.914311275125228,0.913915319471884,0.913518492241042,0.913120793811145,0.912722224561469,0.912322784872118,0.911922475124028,0.911521295698964,0.911119246979521,0.910716329349122,0.910312543192019,0.909907888893293,0.909502366838851,0.909095977415431,0.908688721010595,0.908280598012733,0.907871608811061,0.907461753795622,0.907051033357284,0.906639447887741,0.906226997779511,0.905813683425936,0.905399505221186,0.904984463560249,0.904568558838942,0.904151791453901,0.903734161802587,0.903315670283282,0.902896317295092,0.902476103237942,0.902055028512579,0.901633093520572,0.901210298664309,0.900786644346999,0.900362130972671,0.899936758946170,0.899510528673164,0.899083440560138,0.898655495014395,0.898226692444055,0.897797033258056,0.897366517866153,0.896935146678918,0.896502920107737,0.896069838564815,0.895635902463171,0.895201112216637,0.894765468239862,0.894328970948309,0.893891620758254,0.893453418086786,0.893014363351808,0.892574456972035,0.892133699366994,0.891692090957026,0.891249632163280,0.890806323407717,0.890362165113111,0.889917157703043,0.889471301601905,0.889024597234899,0.888577045028036,0.888128645408133,0.887679398802820,0.887229305640530,0.886778366350505,0.886326581362796,0.885873951108257,0.885420476018550,0.884966156526143,0.884510993064309,0.884054986067126,0.883598135969475,0.883140443207042,0.882681908216318,0.882222531434596,0.881762313299970,0.881301254251341,0.880839354728407,0.880376615171670,0.879913036022433,0.879448617722800,0.878983360715674,0.878517265444759,0.878050332354558,0.877582561890373,0.877113954498305,0.876644510625252,0.876174230718911,0.875703115227776,0.875231164601138,0.874758379289084,0.874284759742496,0.873810306413055,0.873335019753232,0.872858900216298,0.872381948256315,0.871904164328140,0.871425548887424,0.870946102390609,0.870465825294930,0.869984718058417,0.869502781139889,0.869020014998956,0.868536420096020,0.868051996892274,0.867566745849698,0.867080667431065,0.866593762099935,0.866106030320657,0.865617472558368,0.865128089278993,0.864637880949245,0.864146848036622,0.863654991009410,0.863162310336680,0.862668806488290,0.862174479934881,0.861679331147879,0.861183360599495,0.860686568762724,0.860188956111343,0.859690523119913,0.859191270263775,0.858691198019056,0.858190306862660,0.857688597272276,0.857186069726369,0.856682724704188,0.856178562685761,0.855673584151893,0.855167789584169,0.854661179464953,0.854153754277385,0.853645514505385,0.853136460633647,0.852626593147642,0.852115912533619,0.851604419278600,0.851092113870384,0.850578996797541,0.850065068549420,0.849550329616141,0.849034780488595,0.848518421658451,0.848001253618144,0.847483276860886,0.846964491880658,0.846444899172211,0.845924499231068,0.845403292553520,0.844881279636629,0.844358460978226,0.843834837076908,0.843310408432043,0.842785175543765,0.842259138912974,0.841732299041338,0.841204656431292,0.840676211586033,0.840146965009527,0.839616917206502,0.839086068682451,0.838554419943631,0.838021971497061,0.837488723850524,0.836954677512564,0.836419832992487,0.835884190800362,0.835347751447015,0.834810515444036,0.834272483303773,0.833733655539333,0.833194032664581,0.832653615194144,0.832112403643402,0.831570398528496,0.831027600366321,0.830484009674531,0.829939626971533,0.829394452776492,0.828848487609326,0.828301731990708,0.827754186442064,0.827205851485576,0.826656727644175,0.826106815441547,0.825556115402130,0.825004628051110,0.824452353914429,0.823899293518775,0.823345447391589,0.822790816061057,0.822235400056120,0.821679199906461,0.821122216142515,0.820564449295464,0.820005899897234,0.819446568480501,0.818886455578683,0.818325561725947,0.817763887457202,0.817201433308103,0.816638199815048,0.816074187515177,0.815509396946376,0.814943828647269,0.814377483157226,0.813810361016355,0.813242462765505,0.812673788946268,0.812104340100972,0.811534116772686,0.810963119505218,0.810391348843113,0.809818805331653,0.809245489516859,0.808671401945487,0.808096543165031,0.807520913723717,0.806944514170509,0.806367345055104,0.805789406927934,0.805210700340163,0.804631225843688,0.804050983991141,0.803469975335882,0.802888200432004,0.802305659834332,0.801722354098418,0.801138283780548,0.800553449437733,0.799967851627715,0.799381490908964,0.798794367840676,0.798206482982776,0.797617836895915,0.797028430141468,0.796438263281539,0.795847336878954,0.795255651497264,0.794663207700745,0.794070006054395,0.793476047123934,0.792881331475807,0.792285859677179,0.791689632295934,0.791092649900681,0.790494913060746,0.789896422346174,0.789297178327732,0.788697181576903,0.788096432665888,0.787494932167606,0.786892680655693,0.786289678704500,0.785685926889095,0.785081425785260,0.784476175969492,0.783870178019003,0.783263432511718,0.782655940026273,0.782047701142019,0.781438716439017,0.780828986498041,0.780218511900574,0.779607293228810,0.778995331065653,0.778382625994716,0.777769178600318,0.777154989467490,0.776540059181967,0.775924388330193,0.775307977499317,0.774690827277194,0.774072938252385,0.773454311014155,0.772834946152472,0.772214844258008,0.771594005922139,0.770972431736943,0.770350122295198,0.769727078190385,0.769103300016686,0.768478788368980,0.767853543842850,0.767227567034575,0.766600858541132,0.765973418960198,0.765345248890145,0.764716348930043,0.764086719679658,0.763456361739450,0.762825275710576,0.762193462194887,0.761560921794927,0.760927655113933,0.760293662755835,0.759658945325256,0.759023503427508,0.758387337668598,0.757750448655219,0.757112836994757,0.756474503295285,0.755835448165565,0.755195672215048,0.754555176053872,0.753913960292862,0.753272025543528,0.752629372418067,0.751986001529360,0.751341913490975,0.750697108917161,0.750051588422852,0.749405352623664,0.748758402135895,0.748110737576525,0.747462359563216,0.746813268714309,0.746163465648825,0.745512950986464,0.744861725347607,0.744209789353308,0.743557143625304,0.742903788786006,0.742249725458501,0.741594954266553,0.740939475834600,0.740283290787755,0.739626399751805,0.738968803353210,0.738310502219102,0.737651496977287,0.736991788256241,0.736331376685110,0.735670262893714,0.735008447512537,0.734345931172738,0.733682714506141,0.733018798145238,0.732354182723189,0.731688868873821,0.731022857231627,0.730356148431764,0.729688743110057,0.729020641902991,0.728351845447718,0.727682354382052,0.727012169344470,0.726341290974109,0.725669719910769,0.724997456794909,0.724324502267651,0.723650856970773,0.722976521546713,0.722301496638569,0.721625782890093,0.720949380945696,0.720272291450447,0.719594515050066,0.718916052390933,0.718236904120080,0.717557070885192,0.716876553334610,0.716195352117325,0.715513467882982,0.714830901281875,0.714147652964952,0.713463723583807,0.712779113790689,0.712093824238490,0.711407855580754,0.710721208471671,0.710033883566080,0.709345881519464,0.708657202987953,0.707967848628322,0.707277819097991,0.706587115055023,0.705895737158124,0.705203686066644,0.704510962440575,0.703817566940548,0.703123500227838,0.702428762964357,0.701733355812660,0.701037279435937,0.700340534498019,0.699643121663374,0.698945041597106,0.698246294964956,0.697546882433301,0.696846804669153,0.696146062340157,0.695444656114594,0.694742586661377,0.694039854650051,0.693336460750793,0.692632405634413,0.691927689972350,0.691222314436672,0.690516279700078,0.689809586435896,0.689102235318080,0.688394227021213,0.687685562220505,0.686976241591790,0.686266265811530,0.685555635556809,0.684844351505339,0.684132414335452,0.683419824726104,0.682706583356873,0.681992690907961,0.681278148060186,0.680562955494991,0.679847113894437,0.679130623941202,0.678413486318585,0.677695701710502,0.676977270801485,0.676258194276683,0.675538472821862,0.674818107123400,0.674097097868293,0.673375445744148,0.672653151439186,0.671930215642240,0.671206639042756,0.670482422330791,0.669757566197010,0.669032071332692,0.668305938429720,0.667579168180591,0.666851761278405,0.666123718416872,0.665395040290307,0.664665727593633,0.663935781022376,0.663205201272667,0.662473989041242,0.661742145025438,0.661009669923196,0.660276564433059,0.659542829254172,0.658808465086277,0.658073472629720,0.657337852585443,0.656601605654989,0.655864732540497,0.655127233944705,0.654389110570945,0.653650363123147,0.652910992305836,0.652170998824130,0.651430383383741,0.650689146690977,0.649947289452734,0.649204812376504,0.648461716170368,0.647718001542996,0.646973669203652,0.646228719862185,0.645483154229034,0.644736973015226,0.643990176932375,0.643242766692681,0.642494743008930,0.641746106594493,0.640996858163325,0.640246998429965,0.639496528109535,0.638745447917740,0.637993758570864,0.637241460785775,0.636488555279920,0.635735042771325,0.634980923978596,0.634226199620916,0.633470870418048,0.632714937090328,0.631958400358671,0.631201260944566,0.630443519570078,0.629685176957845,0.628926233831079,0.628166690913565,0.627406548929659,0.626645808604289,0.625884470662953,0.625122535831720,0.624360004837227,0.623596878406681,0.622833157267855,0.622068842149091,0.621303933779297,0.620538432887945,0.619772340205074,0.619005656461288,0.618238382387752,0.617470518716196,0.616702066178912,0.615933025508754,0.615163397439135,0.614393182704030,0.613622382037973,0.612850996176058,0.612079025853933,0.611306471807809,0.610533334774449,0.609759615491175,0.608985314695863,0.608210433126943,0.607434971523400,0.606658930624772,0.605882311171149,0.605105113903173,0.604327339562036,0.603548988889484,0.602770062627807,0.601990561519849,0.601210486309000,0.600429837739196,0.599648616554923,0.598866823501210,0.598084459323635,0.597301524768317,0.596518020581921,0.595733947511655,0.594949306305268,0.594164097711054,0.593378322477845,0.592591981355015,0.591805075092478,0.591017604440684,0.590229570150626,0.589440972973830,0.588651813662362,0.587862092968823,0.587071811646349,0.586280970448610,0.585489570129812,0.584697611444693,0.583905095148524,0.583112021997106,0.582318392746773,0.581524208154390,0.580729468977349,0.579934175973572,0.579138329901511,0.578341931520143,0.577544981588972,0.576747480868030,0.575949430117871,0.575150830099578,0.574351681574753,0.573551985305524,0.572751742054542,0.571950952584976,0.571149617660521,0.570347738045387,0.569545314504308,0.568742347802533,0.567938838705831,0.567134787980489,0.566330196393309,0.565525064711608,0.564719393703221,0.563913184136495,0.563106436780292,0.562299152403984,0.561491331777460,0.560682975671116,0.559874084855861,0.559064660103114,0.558254702184801,0.557444211873359,0.556633189941732,0.555821637163370,0.555009554312230,0.554196942162775,0.553383801489972,0.552570133069293,0.551755937676711,0.550941216088704,0.550125969082252,0.549310197434834,0.548493901924430,0.547677083329521,0.546859742429085};
// Generates the vector x and stores it in the memory
void generateVector(float x[N])
{
  800290:	defffb04 	addi	sp,sp,-20
  800294:	dfc00415 	stw	ra,16(sp)
  800298:	df000315 	stw	fp,12(sp)
  80029c:	dc000215 	stw	r16,8(sp)
  8002a0:	df000304 	addi	fp,sp,12
  8002a4:	e13ffe15 	stw	r4,-8(fp)
	int i;
	x[0] = 0;
  8002a8:	e0bffe17 	ldw	r2,-8(fp)
  8002ac:	10000015 	stw	zero,0(r2)
	for (i=1; i<N; i++)
  8002b0:	00800044 	movi	r2,1
  8002b4:	e0bffd15 	stw	r2,-12(fp)
  8002b8:	00001906 	br	800320 <generateVector+0x90>
		x[i] = x[i-1] + step;
  8002bc:	e0bffd17 	ldw	r2,-12(fp)
  8002c0:	1085883a 	add	r2,r2,r2
  8002c4:	1085883a 	add	r2,r2,r2
  8002c8:	1007883a 	mov	r3,r2
  8002cc:	e0bffe17 	ldw	r2,-8(fp)
  8002d0:	10e1883a 	add	r16,r2,r3
  8002d4:	e0fffd17 	ldw	r3,-12(fp)
  8002d8:	00900034 	movhi	r2,16384
  8002dc:	10bfffc4 	addi	r2,r2,-1
  8002e0:	1885883a 	add	r2,r3,r2
  8002e4:	1085883a 	add	r2,r2,r2
  8002e8:	1085883a 	add	r2,r2,r2
  8002ec:	1007883a 	mov	r3,r2
  8002f0:	e0bffe17 	ldw	r2,-8(fp)
  8002f4:	10c5883a 	add	r2,r2,r3
  8002f8:	10c00017 	ldw	r3,0(r2)
  8002fc:	014f8034 	movhi	r5,15872
  800300:	1809883a 	mov	r4,r3
  800304:	0801f100 	call	801f10 <__addsf3>
  800308:	1007883a 	mov	r3,r2
  80030c:	1805883a 	mov	r2,r3
  800310:	80800015 	stw	r2,0(r16)
// Generates the vector x and stores it in the memory
void generateVector(float x[N])
{
	int i;
	x[0] = 0;
	for (i=1; i<N; i++)
  800314:	e0bffd17 	ldw	r2,-12(fp)
  800318:	10800044 	addi	r2,r2,1
  80031c:	e0bffd15 	stw	r2,-12(fp)
  800320:	e0bffd17 	ldw	r2,-12(fp)
  800324:	1081fe50 	cmplti	r2,r2,2041
  800328:	103fe41e 	bne	r2,zero,8002bc <__alt_data_end+0xff8002bc>
		x[i] = x[i-1] + step;
}
  80032c:	0001883a 	nop
  800330:	e6ffff04 	addi	sp,fp,-4
  800334:	dfc00217 	ldw	ra,8(sp)
  800338:	df000117 	ldw	fp,4(sp)
  80033c:	dc000017 	ldw	r16,0(sp)
  800340:	dec00304 	addi	sp,sp,12
  800344:	f800283a 	ret

00800348 <sumVector>:

float sumVector(float x[], int M)
{
  800348:	defff704 	addi	sp,sp,-36
  80034c:	dfc00815 	stw	ra,32(sp)
  800350:	df000715 	stw	fp,28(sp)
  800354:	dc800615 	stw	r18,24(sp)
  800358:	dc400515 	stw	r17,20(sp)
  80035c:	dc000415 	stw	r16,16(sp)
  800360:	df000704 	addi	fp,sp,28
  800364:	e13ffb15 	stw	r4,-20(fp)
  800368:	e17ffc15 	stw	r5,-16(fp)
 float y = 0;
  80036c:	e03ff915 	stw	zero,-28(fp)
 int j;
 for(j=0;j<M;j++){
  800370:	e03ffa15 	stw	zero,-24(fp)
  800374:	00006206 	br	800500 <sumVector+0x1b8>
	 y = y + x[j] * 0.5 + x[j] * x[j] * cosf((x[j]-128)/128);}
  800378:	e13ff917 	ldw	r4,-28(fp)
  80037c:	08045b40 	call	8045b4 <__extendsfdf2>
  800380:	1021883a 	mov	r16,r2
  800384:	1823883a 	mov	r17,r3
  800388:	e0bffa17 	ldw	r2,-24(fp)
  80038c:	1085883a 	add	r2,r2,r2
  800390:	1085883a 	add	r2,r2,r2
  800394:	1007883a 	mov	r3,r2
  800398:	e0bffb17 	ldw	r2,-20(fp)
  80039c:	10c5883a 	add	r2,r2,r3
  8003a0:	10c00017 	ldw	r3,0(r2)
  8003a4:	1809883a 	mov	r4,r3
  8003a8:	08045b40 	call	8045b4 <__extendsfdf2>
  8003ac:	1011883a 	mov	r8,r2
  8003b0:	1813883a 	mov	r9,r3
  8003b4:	000d883a 	mov	r6,zero
  8003b8:	01cff834 	movhi	r7,16352
  8003bc:	4009883a 	mov	r4,r8
  8003c0:	480b883a 	mov	r5,r9
  8003c4:	0803ca00 	call	803ca0 <__muldf3>
  8003c8:	1009883a 	mov	r4,r2
  8003cc:	180b883a 	mov	r5,r3
  8003d0:	2005883a 	mov	r2,r4
  8003d4:	2807883a 	mov	r3,r5
  8003d8:	100d883a 	mov	r6,r2
  8003dc:	180f883a 	mov	r7,r3
  8003e0:	8009883a 	mov	r4,r16
  8003e4:	880b883a 	mov	r5,r17
  8003e8:	08033f40 	call	8033f4 <__adddf3>
  8003ec:	1009883a 	mov	r4,r2
  8003f0:	180b883a 	mov	r5,r3
  8003f4:	2021883a 	mov	r16,r4
  8003f8:	2823883a 	mov	r17,r5
  8003fc:	e0bffa17 	ldw	r2,-24(fp)
  800400:	1085883a 	add	r2,r2,r2
  800404:	1085883a 	add	r2,r2,r2
  800408:	1007883a 	mov	r3,r2
  80040c:	e0bffb17 	ldw	r2,-20(fp)
  800410:	10c5883a 	add	r2,r2,r3
  800414:	10c00017 	ldw	r3,0(r2)
  800418:	e0bffa17 	ldw	r2,-24(fp)
  80041c:	1085883a 	add	r2,r2,r2
  800420:	1085883a 	add	r2,r2,r2
  800424:	1009883a 	mov	r4,r2
  800428:	e0bffb17 	ldw	r2,-20(fp)
  80042c:	1105883a 	add	r2,r2,r4
  800430:	11000017 	ldw	r4,0(r2)
  800434:	200b883a 	mov	r5,r4
  800438:	1809883a 	mov	r4,r3
  80043c:	080294c0 	call	80294c <__mulsf3>
  800440:	1007883a 	mov	r3,r2
  800444:	1825883a 	mov	r18,r3
  800448:	e0bffa17 	ldw	r2,-24(fp)
  80044c:	1085883a 	add	r2,r2,r2
  800450:	1085883a 	add	r2,r2,r2
  800454:	1007883a 	mov	r3,r2
  800458:	e0bffb17 	ldw	r2,-20(fp)
  80045c:	10c5883a 	add	r2,r2,r3
  800460:	10c00017 	ldw	r3,0(r2)
  800464:	0150c034 	movhi	r5,17152
  800468:	1809883a 	mov	r4,r3
  80046c:	0802d7c0 	call	802d7c <__subsf3>
  800470:	1007883a 	mov	r3,r2
  800474:	1805883a 	mov	r2,r3
  800478:	0150c034 	movhi	r5,17152
  80047c:	1009883a 	mov	r4,r2
  800480:	08023d80 	call	8023d8 <__divsf3>
  800484:	1007883a 	mov	r3,r2
  800488:	1805883a 	mov	r2,r3
  80048c:	1009883a 	mov	r4,r2
  800490:	08007440 	call	800744 <cosf>
  800494:	1007883a 	mov	r3,r2
  800498:	180b883a 	mov	r5,r3
  80049c:	9009883a 	mov	r4,r18
  8004a0:	080294c0 	call	80294c <__mulsf3>
  8004a4:	1007883a 	mov	r3,r2
  8004a8:	1805883a 	mov	r2,r3
  8004ac:	1009883a 	mov	r4,r2
  8004b0:	08045b40 	call	8045b4 <__extendsfdf2>
  8004b4:	1009883a 	mov	r4,r2
  8004b8:	180b883a 	mov	r5,r3
  8004bc:	200d883a 	mov	r6,r4
  8004c0:	280f883a 	mov	r7,r5
  8004c4:	8009883a 	mov	r4,r16
  8004c8:	880b883a 	mov	r5,r17
  8004cc:	08033f40 	call	8033f4 <__adddf3>
  8004d0:	1009883a 	mov	r4,r2
  8004d4:	180b883a 	mov	r5,r3
  8004d8:	2005883a 	mov	r2,r4
  8004dc:	2807883a 	mov	r3,r5
  8004e0:	1009883a 	mov	r4,r2
  8004e4:	180b883a 	mov	r5,r3
  8004e8:	08046c40 	call	8046c4 <__truncdfsf2>
  8004ec:	1007883a 	mov	r3,r2
  8004f0:	e0fff915 	stw	r3,-28(fp)

float sumVector(float x[], int M)
{
 float y = 0;
 int j;
 for(j=0;j<M;j++){
  8004f4:	e0bffa17 	ldw	r2,-24(fp)
  8004f8:	10800044 	addi	r2,r2,1
  8004fc:	e0bffa15 	stw	r2,-24(fp)
  800500:	e0fffa17 	ldw	r3,-24(fp)
  800504:	e0bffc17 	ldw	r2,-16(fp)
  800508:	18bf9b16 	blt	r3,r2,800378 <__alt_data_end+0xff800378>
	 y = y + x[j] * 0.5 + x[j] * x[j] * cosf((x[j]-128)/128);}
 return y;
  80050c:	e0bff917 	ldw	r2,-28(fp)
  800510:	1007883a 	mov	r3,r2
}
  800514:	1805883a 	mov	r2,r3
  800518:	e6fffd04 	addi	sp,fp,-12
  80051c:	dfc00417 	ldw	ra,16(sp)
  800520:	df000317 	ldw	fp,12(sp)
  800524:	dc800217 	ldw	r18,8(sp)
  800528:	dc400117 	ldw	r17,4(sp)
  80052c:	dc000017 	ldw	r16,0(sp)
  800530:	dec00504 	addi	sp,sp,20
  800534:	f800283a 	ret

00800538 <sumVector_custom>:

float sumVector_custom(float x[], int M)
{
  800538:	defff704 	addi	sp,sp,-36
  80053c:	dfc00815 	stw	ra,32(sp)
  800540:	df000715 	stw	fp,28(sp)
  800544:	dc000615 	stw	r16,24(sp)
  800548:	df000704 	addi	fp,sp,28
  80054c:	e13ffd15 	stw	r4,-12(fp)
  800550:	e17ffe15 	stw	r5,-8(fp)
 float y = 0;
  800554:	e03ff915 	stw	zero,-28(fp)
 int j;
 for(j=0;j<M;j++){
  800558:	e03ffa15 	stw	zero,-24(fp)
  80055c:	00003306 	br	80062c <sumVector_custom+0xf4>
	 float sub_custom = ALT_CI_MOD_CUSTOM_TOP_0(0,x[j],128);
  800560:	e0bffa17 	ldw	r2,-24(fp)
  800564:	1085883a 	add	r2,r2,r2
  800568:	1085883a 	add	r2,r2,r2
  80056c:	1007883a 	mov	r3,r2
  800570:	e0bffd17 	ldw	r2,-12(fp)
  800574:	10c7883a 	add	r3,r2,r3
  800578:	18800017 	ldw	r2,0(r3)
  80057c:	00d0c034 	movhi	r3,17152
  800580:	10c5c032 	custom	0,r2,r2,r3
  800584:	e0bffb15 	stw	r2,-20(fp)
	 float product = x[j]*cosf(sub_custom/128);
  800588:	e0bffa17 	ldw	r2,-24(fp)
  80058c:	1085883a 	add	r2,r2,r2
  800590:	1085883a 	add	r2,r2,r2
  800594:	1007883a 	mov	r3,r2
  800598:	e0bffd17 	ldw	r2,-12(fp)
  80059c:	10c5883a 	add	r2,r2,r3
  8005a0:	14000017 	ldw	r16,0(r2)
  8005a4:	0150c034 	movhi	r5,17152
  8005a8:	e13ffb17 	ldw	r4,-20(fp)
  8005ac:	08023d80 	call	8023d8 <__divsf3>
  8005b0:	1007883a 	mov	r3,r2
  8005b4:	1805883a 	mov	r2,r3
  8005b8:	1009883a 	mov	r4,r2
  8005bc:	08007440 	call	800744 <cosf>
  8005c0:	1007883a 	mov	r3,r2
  8005c4:	180b883a 	mov	r5,r3
  8005c8:	8009883a 	mov	r4,r16
  8005cc:	080294c0 	call	80294c <__mulsf3>
  8005d0:	1007883a 	mov	r3,r2
  8005d4:	e0fffc15 	stw	r3,-16(fp)
	 y = y + ALT_CI_MOD_CUSTOM_TOP_0(1,x[j],0.5+product);}
  8005d8:	e0bffa17 	ldw	r2,-24(fp)
  8005dc:	1085883a 	add	r2,r2,r2
  8005e0:	1085883a 	add	r2,r2,r2
  8005e4:	1007883a 	mov	r3,r2
  8005e8:	e0bffd17 	ldw	r2,-12(fp)
  8005ec:	10c5883a 	add	r2,r2,r3
  8005f0:	14000017 	ldw	r16,0(r2)
  8005f4:	014fc034 	movhi	r5,16128
  8005f8:	e13ffc17 	ldw	r4,-16(fp)
  8005fc:	0801f100 	call	801f10 <__addsf3>
  800600:	1007883a 	mov	r3,r2
  800604:	1805883a 	mov	r2,r3
  800608:	8085c072 	custom	1,r2,r16,r2
  80060c:	100b883a 	mov	r5,r2
  800610:	e13ff917 	ldw	r4,-28(fp)
  800614:	0801f100 	call	801f10 <__addsf3>
  800618:	1007883a 	mov	r3,r2
  80061c:	e0fff915 	stw	r3,-28(fp)

float sumVector_custom(float x[], int M)
{
 float y = 0;
 int j;
 for(j=0;j<M;j++){
  800620:	e0bffa17 	ldw	r2,-24(fp)
  800624:	10800044 	addi	r2,r2,1
  800628:	e0bffa15 	stw	r2,-24(fp)
  80062c:	e0fffa17 	ldw	r3,-24(fp)
  800630:	e0bffe17 	ldw	r2,-8(fp)
  800634:	18bfca16 	blt	r3,r2,800560 <__alt_data_end+0xff800560>
	 float sub_custom = ALT_CI_MOD_CUSTOM_TOP_0(0,x[j],128);
	 float product = x[j]*cosf(sub_custom/128);
	 y = y + ALT_CI_MOD_CUSTOM_TOP_0(1,x[j],0.5+product);}
	 //y = y + x[j]*0.5 + ALT_CI_MOD_FP_MULT_1(ALT_CI_MOD_FP_MULT_1(x[j],x[j]),cosf((x[j]-128)/128));}
 return y;
  800638:	e0bff917 	ldw	r2,-28(fp)
  80063c:	1007883a 	mov	r3,r2
}
  800640:	1805883a 	mov	r2,r3
  800644:	e6ffff04 	addi	sp,fp,-4
  800648:	dfc00217 	ldw	ra,8(sp)
  80064c:	df000117 	ldw	fp,4(sp)
  800650:	dc000017 	ldw	r16,0(sp)
  800654:	dec00304 	addi	sp,sp,12
  800658:	f800283a 	ret

0080065c <main>:

int main()
{
  80065c:	def7f504 	addi	sp,sp,-8236
  800660:	dfc80a15 	stw	ra,8232(sp)
  800664:	df080915 	stw	fp,8228(sp)
  800668:	df080904 	addi	fp,sp,8228
	printf("Task 6!\n");
  80066c:	01002074 	movhi	r4,129
  800670:	210f6804 	addi	r4,r4,15776
  800674:	0804bfc0 	call	804bfc <puts>
	// Define input vector
	float x[N];
	// Returned result
	//float y;
	generateVector(x);
  800678:	e0b7fa04 	addi	r2,fp,-8216
  80067c:	1009883a 	mov	r4,r2
  800680:	08002900 	call	800290 <generateVector>
//	alt_putstr(buf);
//	alt_putstr(" ticks \n");
//
//	printf("y : %f\n",y);
//
	exec_t1 = times(NULL); // get system time before starting the process
  800684:	0009883a 	mov	r4,zero
  800688:	0811c5c0 	call	811c5c <times>
  80068c:	e0b7f715 	stw	r2,-8228(fp)
	// The code that you want to time goes here
	float y_custom = sumVector_custom(x, N);
  800690:	e0b7fa04 	addi	r2,fp,-8216
  800694:	0141fe44 	movi	r5,2041
  800698:	1009883a 	mov	r4,r2
  80069c:	08005380 	call	800538 <sumVector_custom>
  8006a0:	e0b7f815 	stw	r2,-8224(fp)
	// till here
	exec_t2 = times(NULL); // get system time after finishing the process
  8006a4:	0009883a 	mov	r4,zero
  8006a8:	0811c5c0 	call	811c5c <times>
  8006ac:	e0b7f915 	stw	r2,-8220(fp)
	gcvt((exec_t2 - exec_t1), 10, buf);
  8006b0:	e0f7f917 	ldw	r3,-8220(fp)
  8006b4:	e0b7f717 	ldw	r2,-8228(fp)
  8006b8:	1885c83a 	sub	r2,r3,r2
  8006bc:	1009883a 	mov	r4,r2
  8006c0:	080450c0 	call	80450c <__floatunsidf>
  8006c4:	1011883a 	mov	r8,r2
  8006c8:	1813883a 	mov	r9,r3
  8006cc:	e0bff304 	addi	r2,fp,-52
  8006d0:	100f883a 	mov	r7,r2
  8006d4:	01800284 	movi	r6,10
  8006d8:	4009883a 	mov	r4,r8
  8006dc:	480b883a 	mov	r5,r9
  8006e0:	08049f00 	call	8049f0 <gcvt>
	alt_putstr(" proc time = ");
  8006e4:	01002074 	movhi	r4,129
  8006e8:	210f6a04 	addi	r4,r4,15784
  8006ec:	08119700 	call	811970 <alt_putstr>
	alt_putstr(buf);
  8006f0:	e0bff304 	addi	r2,fp,-52
  8006f4:	1009883a 	mov	r4,r2
  8006f8:	08119700 	call	811970 <alt_putstr>
	alt_putstr(" ticks \n");
  8006fc:	01002074 	movhi	r4,129
  800700:	210f6e04 	addi	r4,r4,15800
  800704:	08119700 	call	811970 <alt_putstr>

	printf("y custom: %f\n",y_custom);
  800708:	e137f817 	ldw	r4,-8224(fp)
  80070c:	08045b40 	call	8045b4 <__extendsfdf2>
  800710:	100d883a 	mov	r6,r2
  800714:	180f883a 	mov	r7,r3
  800718:	300b883a 	mov	r5,r6
  80071c:	380d883a 	mov	r6,r7
  800720:	01002074 	movhi	r4,129
  800724:	210f7104 	addi	r4,r4,15812
  800728:	0804b000 	call	804b00 <printf>

	return 0;
  80072c:	0005883a 	mov	r2,zero
}
  800730:	e037883a 	mov	sp,fp
  800734:	dfc00117 	ldw	ra,4(sp)
  800738:	df000017 	ldw	fp,0(sp)
  80073c:	dec00204 	addi	sp,sp,8
  800740:	f800283a 	ret

00800744 <cosf>:
  800744:	00a00034 	movhi	r2,32768
  800748:	defffd04 	addi	sp,sp,-12
  80074c:	10bfffc4 	addi	r2,r2,-1
  800750:	00cfd274 	movhi	r3,16201
  800754:	dfc00215 	stw	ra,8(sp)
  800758:	1104703a 	and	r2,r2,r4
  80075c:	18c3f604 	addi	r3,r3,4056
  800760:	1880140e 	bge	r3,r2,8007b4 <cosf+0x70>
  800764:	00dfe034 	movhi	r3,32640
  800768:	18ffffc4 	addi	r3,r3,-1
  80076c:	1880050e 	bge	r3,r2,800784 <cosf+0x40>
  800770:	200b883a 	mov	r5,r4
  800774:	0802d7c0 	call	802d7c <__subsf3>
  800778:	dfc00217 	ldw	ra,8(sp)
  80077c:	dec00304 	addi	sp,sp,12
  800780:	f800283a 	ret
  800784:	d80b883a 	mov	r5,sp
  800788:	08007f40 	call	8007f4 <__ieee754_rem_pio2f>
  80078c:	108000cc 	andi	r2,r2,3
  800790:	01800044 	movi	r6,1
  800794:	11800f26 	beq	r2,r6,8007d4 <cosf+0x90>
  800798:	00c00084 	movi	r3,2
  80079c:	d9400117 	ldw	r5,4(sp)
  8007a0:	d9000017 	ldw	r4,0(sp)
  8007a4:	10c00826 	beq	r2,r3,8007c8 <cosf+0x84>
  8007a8:	10001026 	beq	r2,zero,8007ec <cosf+0xa8>
  8007ac:	0801ae80 	call	801ae8 <__kernel_sinf>
  8007b0:	003ff106 	br	800778 <__alt_data_end+0xff800778>
  8007b4:	000b883a 	mov	r5,zero
  8007b8:	0800d180 	call	800d18 <__kernel_cosf>
  8007bc:	dfc00217 	ldw	ra,8(sp)
  8007c0:	dec00304 	addi	sp,sp,12
  8007c4:	f800283a 	ret
  8007c8:	0800d180 	call	800d18 <__kernel_cosf>
  8007cc:	10a0003c 	xorhi	r2,r2,32768
  8007d0:	003fe906 	br	800778 <__alt_data_end+0xff800778>
  8007d4:	d9400117 	ldw	r5,4(sp)
  8007d8:	d9000017 	ldw	r4,0(sp)
  8007dc:	100d883a 	mov	r6,r2
  8007e0:	0801ae80 	call	801ae8 <__kernel_sinf>
  8007e4:	10a0003c 	xorhi	r2,r2,32768
  8007e8:	003fe306 	br	800778 <__alt_data_end+0xff800778>
  8007ec:	0800d180 	call	800d18 <__kernel_cosf>
  8007f0:	003fe106 	br	800778 <__alt_data_end+0xff800778>

008007f4 <__ieee754_rem_pio2f>:
  8007f4:	defff104 	addi	sp,sp,-60
  8007f8:	dc000515 	stw	r16,20(sp)
  8007fc:	04200034 	movhi	r16,32768
  800800:	843fffc4 	addi	r16,r16,-1
  800804:	00cfd274 	movhi	r3,16201
  800808:	dfc00e15 	stw	ra,56(sp)
  80080c:	df000d15 	stw	fp,52(sp)
  800810:	ddc00c15 	stw	r23,48(sp)
  800814:	dd800b15 	stw	r22,44(sp)
  800818:	dd400a15 	stw	r21,40(sp)
  80081c:	dd000915 	stw	r20,36(sp)
  800820:	dcc00815 	stw	r19,32(sp)
  800824:	dc800715 	stw	r18,28(sp)
  800828:	dc400615 	stw	r17,24(sp)
  80082c:	8120703a 	and	r16,r16,r4
  800830:	18c3f604 	addi	r3,r3,4056
  800834:	1c005d0e 	bge	r3,r16,8009ac <__ieee754_rem_pio2f+0x1b8>
  800838:	00d005f4 	movhi	r3,16407
  80083c:	18f2f8c4 	addi	r3,r3,-13341
  800840:	2027883a 	mov	r19,r4
  800844:	2823883a 	mov	r17,r5
  800848:	1c001916 	blt	r3,r16,8008b0 <__ieee754_rem_pio2f+0xbc>
  80084c:	014ff274 	movhi	r5,16329
  800850:	2943e004 	addi	r5,r5,3968
  800854:	0100c00e 	bge	zero,r4,800b58 <__ieee754_rem_pio2f+0x364>
  800858:	0802d7c0 	call	802d7c <__subsf3>
  80085c:	1025883a 	mov	r18,r2
  800860:	00bffc04 	movi	r2,-16
  800864:	80a0703a 	and	r16,r16,r2
  800868:	008ff274 	movhi	r2,16329
  80086c:	1083f404 	addi	r2,r2,4048
  800870:	014dcd74 	movhi	r5,14133
  800874:	80806226 	beq	r16,r2,800a00 <__ieee754_rem_pio2f+0x20c>
  800878:	295110c4 	addi	r5,r5,17475
  80087c:	9009883a 	mov	r4,r18
  800880:	0802d7c0 	call	802d7c <__subsf3>
  800884:	100b883a 	mov	r5,r2
  800888:	9009883a 	mov	r4,r18
  80088c:	88800015 	stw	r2,0(r17)
  800890:	0802d7c0 	call	802d7c <__subsf3>
  800894:	014dcd74 	movhi	r5,14133
  800898:	295110c4 	addi	r5,r5,17475
  80089c:	1009883a 	mov	r4,r2
  8008a0:	0802d7c0 	call	802d7c <__subsf3>
  8008a4:	88800115 	stw	r2,4(r17)
  8008a8:	00800044 	movi	r2,1
  8008ac:	00004206 	br	8009b8 <__ieee754_rem_pio2f+0x1c4>
  8008b0:	00d0d274 	movhi	r3,17225
  8008b4:	18c3e004 	addi	r3,r3,3968
  8008b8:	1c00640e 	bge	r3,r16,800a4c <__ieee754_rem_pio2f+0x258>
  8008bc:	00dfe034 	movhi	r3,32640
  8008c0:	18ffffc4 	addi	r3,r3,-1
  8008c4:	1c004816 	blt	r3,r16,8009e8 <__ieee754_rem_pio2f+0x1f4>
  8008c8:	8025d5fa 	srai	r18,r16,23
  8008cc:	94bfde84 	addi	r18,r18,-134
  8008d0:	900495fa 	slli	r2,r18,23
  8008d4:	80a1c83a 	sub	r16,r16,r2
  8008d8:	8009883a 	mov	r4,r16
  8008dc:	08032600 	call	803260 <__fixsfsi>
  8008e0:	1009883a 	mov	r4,r2
  8008e4:	08032d00 	call	8032d0 <__floatsisf>
  8008e8:	8009883a 	mov	r4,r16
  8008ec:	100b883a 	mov	r5,r2
  8008f0:	d8800215 	stw	r2,8(sp)
  8008f4:	0802d7c0 	call	802d7c <__subsf3>
  8008f8:	0150e034 	movhi	r5,17280
  8008fc:	1009883a 	mov	r4,r2
  800900:	080294c0 	call	80294c <__mulsf3>
  800904:	1009883a 	mov	r4,r2
  800908:	1029883a 	mov	r20,r2
  80090c:	08032600 	call	803260 <__fixsfsi>
  800910:	1009883a 	mov	r4,r2
  800914:	08032d00 	call	8032d0 <__floatsisf>
  800918:	100b883a 	mov	r5,r2
  80091c:	a009883a 	mov	r4,r20
  800920:	1021883a 	mov	r16,r2
  800924:	d8800315 	stw	r2,12(sp)
  800928:	0802d7c0 	call	802d7c <__subsf3>
  80092c:	0150e034 	movhi	r5,17280
  800930:	1009883a 	mov	r4,r2
  800934:	080294c0 	call	80294c <__mulsf3>
  800938:	000b883a 	mov	r5,zero
  80093c:	1009883a 	mov	r4,r2
  800940:	d8800415 	stw	r2,16(sp)
  800944:	08028180 	call	802818 <__eqsf2>
  800948:	1000d81e 	bne	r2,zero,800cac <__ieee754_rem_pio2f+0x4b8>
  80094c:	000b883a 	mov	r5,zero
  800950:	8009883a 	mov	r4,r16
  800954:	08028180 	call	802818 <__eqsf2>
  800958:	100f003a 	cmpeq	r7,r2,zero
  80095c:	00800084 	movi	r2,2
  800960:	11cfc83a 	sub	r7,r2,r7
  800964:	00800084 	movi	r2,2
  800968:	d8800015 	stw	r2,0(sp)
  80096c:	00802074 	movhi	r2,129
  800970:	108f9504 	addi	r2,r2,15956
  800974:	d8800115 	stw	r2,4(sp)
  800978:	900d883a 	mov	r6,r18
  80097c:	880b883a 	mov	r5,r17
  800980:	d9000204 	addi	r4,sp,8
  800984:	0800fe40 	call	800fe4 <__kernel_rem_pio2f>
  800988:	98000b0e 	bge	r19,zero,8009b8 <__ieee754_rem_pio2f+0x1c4>
  80098c:	89000017 	ldw	r4,0(r17)
  800990:	88c00117 	ldw	r3,4(r17)
  800994:	0085c83a 	sub	r2,zero,r2
  800998:	2120003c 	xorhi	r4,r4,32768
  80099c:	18e0003c 	xorhi	r3,r3,32768
  8009a0:	89000015 	stw	r4,0(r17)
  8009a4:	88c00115 	stw	r3,4(r17)
  8009a8:	00000306 	br	8009b8 <__ieee754_rem_pio2f+0x1c4>
  8009ac:	29000015 	stw	r4,0(r5)
  8009b0:	28000115 	stw	zero,4(r5)
  8009b4:	0005883a 	mov	r2,zero
  8009b8:	dfc00e17 	ldw	ra,56(sp)
  8009bc:	df000d17 	ldw	fp,52(sp)
  8009c0:	ddc00c17 	ldw	r23,48(sp)
  8009c4:	dd800b17 	ldw	r22,44(sp)
  8009c8:	dd400a17 	ldw	r21,40(sp)
  8009cc:	dd000917 	ldw	r20,36(sp)
  8009d0:	dcc00817 	ldw	r19,32(sp)
  8009d4:	dc800717 	ldw	r18,28(sp)
  8009d8:	dc400617 	ldw	r17,24(sp)
  8009dc:	dc000517 	ldw	r16,20(sp)
  8009e0:	dec00f04 	addi	sp,sp,60
  8009e4:	f800283a 	ret
  8009e8:	200b883a 	mov	r5,r4
  8009ec:	0802d7c0 	call	802d7c <__subsf3>
  8009f0:	88800115 	stw	r2,4(r17)
  8009f4:	88800015 	stw	r2,0(r17)
  8009f8:	0005883a 	mov	r2,zero
  8009fc:	003fee06 	br	8009b8 <__alt_data_end+0xff8009b8>
  800a00:	29510004 	addi	r5,r5,17408
  800a04:	9009883a 	mov	r4,r18
  800a08:	0802d7c0 	call	802d7c <__subsf3>
  800a0c:	014ba1b4 	movhi	r5,11910
  800a10:	2968c204 	addi	r5,r5,-23800
  800a14:	1009883a 	mov	r4,r2
  800a18:	1021883a 	mov	r16,r2
  800a1c:	0802d7c0 	call	802d7c <__subsf3>
  800a20:	100b883a 	mov	r5,r2
  800a24:	8009883a 	mov	r4,r16
  800a28:	88800015 	stw	r2,0(r17)
  800a2c:	0802d7c0 	call	802d7c <__subsf3>
  800a30:	014ba1b4 	movhi	r5,11910
  800a34:	2968c204 	addi	r5,r5,-23800
  800a38:	1009883a 	mov	r4,r2
  800a3c:	0802d7c0 	call	802d7c <__subsf3>
  800a40:	88800115 	stw	r2,4(r17)
  800a44:	00800044 	movi	r2,1
  800a48:	003fdb06 	br	8009b8 <__alt_data_end+0xff8009b8>
  800a4c:	0801ca00 	call	801ca0 <fabsf>
  800a50:	014fc8f4 	movhi	r5,16163
  800a54:	297e6104 	addi	r5,r5,-1660
  800a58:	1009883a 	mov	r4,r2
  800a5c:	102b883a 	mov	r21,r2
  800a60:	080294c0 	call	80294c <__mulsf3>
  800a64:	014fc034 	movhi	r5,16128
  800a68:	1009883a 	mov	r4,r2
  800a6c:	0801f100 	call	801f10 <__addsf3>
  800a70:	1009883a 	mov	r4,r2
  800a74:	08032600 	call	803260 <__fixsfsi>
  800a78:	1009883a 	mov	r4,r2
  800a7c:	1025883a 	mov	r18,r2
  800a80:	08032d00 	call	8032d0 <__floatsisf>
  800a84:	014ff274 	movhi	r5,16329
  800a88:	2943e004 	addi	r5,r5,3968
  800a8c:	1009883a 	mov	r4,r2
  800a90:	1029883a 	mov	r20,r2
  800a94:	080294c0 	call	80294c <__mulsf3>
  800a98:	a809883a 	mov	r4,r21
  800a9c:	100b883a 	mov	r5,r2
  800aa0:	0802d7c0 	call	802d7c <__subsf3>
  800aa4:	014dcd74 	movhi	r5,14133
  800aa8:	295110c4 	addi	r5,r5,17475
  800aac:	a009883a 	mov	r4,r20
  800ab0:	102f883a 	mov	r23,r2
  800ab4:	102d883a 	mov	r22,r2
  800ab8:	080294c0 	call	80294c <__mulsf3>
  800abc:	00c007c4 	movi	r3,31
  800ac0:	102b883a 	mov	r21,r2
  800ac4:	100b883a 	mov	r5,r2
  800ac8:	1c800f16 	blt	r3,r18,800b08 <__ieee754_rem_pio2f+0x314>
  800acc:	90ffffc4 	addi	r3,r18,-1
  800ad0:	18c7883a 	add	r3,r3,r3
  800ad4:	01002074 	movhi	r4,129
  800ad8:	210f7504 	addi	r4,r4,15828
  800adc:	18c7883a 	add	r3,r3,r3
  800ae0:	20c7883a 	add	r3,r4,r3
  800ae4:	19000017 	ldw	r4,0(r3)
  800ae8:	00ffc004 	movi	r3,-256
  800aec:	80c6703a 	and	r3,r16,r3
  800af0:	19000526 	beq	r3,r4,800b08 <__ieee754_rem_pio2f+0x314>
  800af4:	b809883a 	mov	r4,r23
  800af8:	0802d7c0 	call	802d7c <__subsf3>
  800afc:	1039883a 	mov	fp,r2
  800b00:	88800015 	stw	r2,0(r17)
  800b04:	00000a06 	br	800b30 <__ieee754_rem_pio2f+0x33c>
  800b08:	b809883a 	mov	r4,r23
  800b0c:	0802d7c0 	call	802d7c <__subsf3>
  800b10:	1006d5fa 	srli	r3,r2,23
  800b14:	8021d5fa 	srai	r16,r16,23
  800b18:	01000204 	movi	r4,8
  800b1c:	18c03fcc 	andi	r3,r3,255
  800b20:	80c7c83a 	sub	r3,r16,r3
  800b24:	1039883a 	mov	fp,r2
  800b28:	20c02116 	blt	r4,r3,800bb0 <__ieee754_rem_pio2f+0x3bc>
  800b2c:	88800015 	stw	r2,0(r17)
  800b30:	e00b883a 	mov	r5,fp
  800b34:	b009883a 	mov	r4,r22
  800b38:	0802d7c0 	call	802d7c <__subsf3>
  800b3c:	a80b883a 	mov	r5,r21
  800b40:	1009883a 	mov	r4,r2
  800b44:	0802d7c0 	call	802d7c <__subsf3>
  800b48:	88800115 	stw	r2,4(r17)
  800b4c:	98005916 	blt	r19,zero,800cb4 <__ieee754_rem_pio2f+0x4c0>
  800b50:	9005883a 	mov	r2,r18
  800b54:	003f9806 	br	8009b8 <__alt_data_end+0xff8009b8>
  800b58:	0801f100 	call	801f10 <__addsf3>
  800b5c:	1025883a 	mov	r18,r2
  800b60:	00bffc04 	movi	r2,-16
  800b64:	80a0703a 	and	r16,r16,r2
  800b68:	008ff274 	movhi	r2,16329
  800b6c:	1083f404 	addi	r2,r2,4048
  800b70:	014dcd74 	movhi	r5,14133
  800b74:	80805526 	beq	r16,r2,800ccc <__ieee754_rem_pio2f+0x4d8>
  800b78:	295110c4 	addi	r5,r5,17475
  800b7c:	9009883a 	mov	r4,r18
  800b80:	0801f100 	call	801f10 <__addsf3>
  800b84:	100b883a 	mov	r5,r2
  800b88:	9009883a 	mov	r4,r18
  800b8c:	88800015 	stw	r2,0(r17)
  800b90:	0802d7c0 	call	802d7c <__subsf3>
  800b94:	014dcd74 	movhi	r5,14133
  800b98:	295110c4 	addi	r5,r5,17475
  800b9c:	1009883a 	mov	r4,r2
  800ba0:	0801f100 	call	801f10 <__addsf3>
  800ba4:	88800115 	stw	r2,4(r17)
  800ba8:	00bfffc4 	movi	r2,-1
  800bac:	003f8206 	br	8009b8 <__alt_data_end+0xff8009b8>
  800bb0:	014dcd74 	movhi	r5,14133
  800bb4:	29510004 	addi	r5,r5,17408
  800bb8:	a009883a 	mov	r4,r20
  800bbc:	080294c0 	call	80294c <__mulsf3>
  800bc0:	100b883a 	mov	r5,r2
  800bc4:	b809883a 	mov	r4,r23
  800bc8:	102b883a 	mov	r21,r2
  800bcc:	0802d7c0 	call	802d7c <__subsf3>
  800bd0:	100b883a 	mov	r5,r2
  800bd4:	b809883a 	mov	r4,r23
  800bd8:	102d883a 	mov	r22,r2
  800bdc:	0802d7c0 	call	802d7c <__subsf3>
  800be0:	a80b883a 	mov	r5,r21
  800be4:	1009883a 	mov	r4,r2
  800be8:	0802d7c0 	call	802d7c <__subsf3>
  800bec:	014ba1b4 	movhi	r5,11910
  800bf0:	2968c204 	addi	r5,r5,-23800
  800bf4:	a009883a 	mov	r4,r20
  800bf8:	102b883a 	mov	r21,r2
  800bfc:	080294c0 	call	80294c <__mulsf3>
  800c00:	a80b883a 	mov	r5,r21
  800c04:	1009883a 	mov	r4,r2
  800c08:	0802d7c0 	call	802d7c <__subsf3>
  800c0c:	100b883a 	mov	r5,r2
  800c10:	b009883a 	mov	r4,r22
  800c14:	102b883a 	mov	r21,r2
  800c18:	0802d7c0 	call	802d7c <__subsf3>
  800c1c:	1006d5fa 	srli	r3,r2,23
  800c20:	1039883a 	mov	fp,r2
  800c24:	18c03fcc 	andi	r3,r3,255
  800c28:	80e1c83a 	sub	r16,r16,r3
  800c2c:	00c00644 	movi	r3,25
  800c30:	1c3fbe0e 	bge	r3,r16,800b2c <__alt_data_end+0xff800b2c>
  800c34:	014ba1b4 	movhi	r5,11910
  800c38:	2968c004 	addi	r5,r5,-23808
  800c3c:	a009883a 	mov	r4,r20
  800c40:	080294c0 	call	80294c <__mulsf3>
  800c44:	b009883a 	mov	r4,r22
  800c48:	100b883a 	mov	r5,r2
  800c4c:	102b883a 	mov	r21,r2
  800c50:	0802d7c0 	call	802d7c <__subsf3>
  800c54:	b009883a 	mov	r4,r22
  800c58:	100b883a 	mov	r5,r2
  800c5c:	1021883a 	mov	r16,r2
  800c60:	0802d7c0 	call	802d7c <__subsf3>
  800c64:	a80b883a 	mov	r5,r21
  800c68:	1009883a 	mov	r4,r2
  800c6c:	0802d7c0 	call	802d7c <__subsf3>
  800c70:	01492374 	movhi	r5,9357
  800c74:	294c4c84 	addi	r5,r5,12594
  800c78:	a009883a 	mov	r4,r20
  800c7c:	102b883a 	mov	r21,r2
  800c80:	080294c0 	call	80294c <__mulsf3>
  800c84:	a80b883a 	mov	r5,r21
  800c88:	1009883a 	mov	r4,r2
  800c8c:	0802d7c0 	call	802d7c <__subsf3>
  800c90:	100b883a 	mov	r5,r2
  800c94:	8009883a 	mov	r4,r16
  800c98:	102b883a 	mov	r21,r2
  800c9c:	0802d7c0 	call	802d7c <__subsf3>
  800ca0:	802d883a 	mov	r22,r16
  800ca4:	1039883a 	mov	fp,r2
  800ca8:	003fa006 	br	800b2c <__alt_data_end+0xff800b2c>
  800cac:	01c000c4 	movi	r7,3
  800cb0:	003f2c06 	br	800964 <__alt_data_end+0xff800964>
  800cb4:	10a0003c 	xorhi	r2,r2,32768
  800cb8:	e720003c 	xorhi	fp,fp,32768
  800cbc:	88800115 	stw	r2,4(r17)
  800cc0:	8f000015 	stw	fp,0(r17)
  800cc4:	0485c83a 	sub	r2,zero,r18
  800cc8:	003f3b06 	br	8009b8 <__alt_data_end+0xff8009b8>
  800ccc:	29510004 	addi	r5,r5,17408
  800cd0:	9009883a 	mov	r4,r18
  800cd4:	0801f100 	call	801f10 <__addsf3>
  800cd8:	014ba1b4 	movhi	r5,11910
  800cdc:	2968c204 	addi	r5,r5,-23800
  800ce0:	1009883a 	mov	r4,r2
  800ce4:	1021883a 	mov	r16,r2
  800ce8:	0801f100 	call	801f10 <__addsf3>
  800cec:	100b883a 	mov	r5,r2
  800cf0:	8009883a 	mov	r4,r16
  800cf4:	88800015 	stw	r2,0(r17)
  800cf8:	0802d7c0 	call	802d7c <__subsf3>
  800cfc:	014ba1b4 	movhi	r5,11910
  800d00:	2968c204 	addi	r5,r5,-23800
  800d04:	1009883a 	mov	r4,r2
  800d08:	0801f100 	call	801f10 <__addsf3>
  800d0c:	88800115 	stw	r2,4(r17)
  800d10:	00bfffc4 	movi	r2,-1
  800d14:	003f2806 	br	8009b8 <__alt_data_end+0xff8009b8>

00800d18 <__kernel_cosf>:
  800d18:	defff804 	addi	sp,sp,-32
  800d1c:	dc000015 	stw	r16,0(sp)
  800d20:	04200034 	movhi	r16,32768
  800d24:	843fffc4 	addi	r16,r16,-1
  800d28:	008c8034 	movhi	r2,12800
  800d2c:	dcc00315 	stw	r19,12(sp)
  800d30:	dc800215 	stw	r18,8(sp)
  800d34:	dfc00715 	stw	ra,28(sp)
  800d38:	dd800615 	stw	r22,24(sp)
  800d3c:	dd400515 	stw	r21,20(sp)
  800d40:	dd000415 	stw	r20,16(sp)
  800d44:	dc400115 	stw	r17,4(sp)
  800d48:	8120703a 	and	r16,r16,r4
  800d4c:	10bfffc4 	addi	r2,r2,-1
  800d50:	2025883a 	mov	r18,r4
  800d54:	2827883a 	mov	r19,r5
  800d58:	14004416 	blt	r2,r16,800e6c <__kernel_cosf+0x154>
  800d5c:	08032600 	call	803260 <__fixsfsi>
  800d60:	10009e26 	beq	r2,zero,800fdc <__kernel_cosf+0x2c4>
  800d64:	900b883a 	mov	r5,r18
  800d68:	9009883a 	mov	r4,r18
  800d6c:	080294c0 	call	80294c <__mulsf3>
  800d70:	016b5234 	movhi	r5,44360
  800d74:	2975d384 	addi	r5,r5,-10418
  800d78:	1009883a 	mov	r4,r2
  800d7c:	1021883a 	mov	r16,r2
  800d80:	102b883a 	mov	r21,r2
  800d84:	080294c0 	call	80294c <__mulsf3>
  800d88:	014c43f4 	movhi	r5,12559
  800d8c:	295d3d84 	addi	r5,r5,29942
  800d90:	1009883a 	mov	r4,r2
  800d94:	0801f100 	call	801f10 <__addsf3>
  800d98:	800b883a 	mov	r5,r16
  800d9c:	1009883a 	mov	r4,r2
  800da0:	080294c0 	call	80294c <__mulsf3>
  800da4:	014d2534 	movhi	r5,13460
  800da8:	297c9f04 	addi	r5,r5,-3460
  800dac:	1009883a 	mov	r4,r2
  800db0:	0802d7c0 	call	802d7c <__subsf3>
  800db4:	800b883a 	mov	r5,r16
  800db8:	1009883a 	mov	r4,r2
  800dbc:	080294c0 	call	80294c <__mulsf3>
  800dc0:	014df434 	movhi	r5,14288
  800dc4:	29434044 	addi	r5,r5,3329
  800dc8:	1009883a 	mov	r4,r2
  800dcc:	0801f100 	call	801f10 <__addsf3>
  800dd0:	800b883a 	mov	r5,r16
  800dd4:	1009883a 	mov	r4,r2
  800dd8:	080294c0 	call	80294c <__mulsf3>
  800ddc:	014eadb4 	movhi	r5,15030
  800de0:	2942d844 	addi	r5,r5,2913
  800de4:	1009883a 	mov	r4,r2
  800de8:	0802d7c0 	call	802d7c <__subsf3>
  800dec:	800b883a 	mov	r5,r16
  800df0:	1009883a 	mov	r4,r2
  800df4:	080294c0 	call	80294c <__mulsf3>
  800df8:	014f4af4 	movhi	r5,15659
  800dfc:	296aaac4 	addi	r5,r5,-21845
  800e00:	1009883a 	mov	r4,r2
  800e04:	0801f100 	call	801f10 <__addsf3>
  800e08:	800b883a 	mov	r5,r16
  800e0c:	1009883a 	mov	r4,r2
  800e10:	080294c0 	call	80294c <__mulsf3>
  800e14:	102d883a 	mov	r22,r2
  800e18:	a809883a 	mov	r4,r21
  800e1c:	014fc034 	movhi	r5,16128
  800e20:	080294c0 	call	80294c <__mulsf3>
  800e24:	b00b883a 	mov	r5,r22
  800e28:	a809883a 	mov	r4,r21
  800e2c:	1021883a 	mov	r16,r2
  800e30:	080294c0 	call	80294c <__mulsf3>
  800e34:	980b883a 	mov	r5,r19
  800e38:	9009883a 	mov	r4,r18
  800e3c:	1023883a 	mov	r17,r2
  800e40:	080294c0 	call	80294c <__mulsf3>
  800e44:	8809883a 	mov	r4,r17
  800e48:	100b883a 	mov	r5,r2
  800e4c:	0802d7c0 	call	802d7c <__subsf3>
  800e50:	8009883a 	mov	r4,r16
  800e54:	100b883a 	mov	r5,r2
  800e58:	0802d7c0 	call	802d7c <__subsf3>
  800e5c:	100b883a 	mov	r5,r2
  800e60:	010fe034 	movhi	r4,16256
  800e64:	0802d7c0 	call	802d7c <__subsf3>
  800e68:	00004f06 	br	800fa8 <__kernel_cosf+0x290>
  800e6c:	200b883a 	mov	r5,r4
  800e70:	080294c0 	call	80294c <__mulsf3>
  800e74:	016b5234 	movhi	r5,44360
  800e78:	2975d384 	addi	r5,r5,-10418
  800e7c:	1009883a 	mov	r4,r2
  800e80:	1023883a 	mov	r17,r2
  800e84:	102b883a 	mov	r21,r2
  800e88:	080294c0 	call	80294c <__mulsf3>
  800e8c:	014c43f4 	movhi	r5,12559
  800e90:	295d3d84 	addi	r5,r5,29942
  800e94:	1009883a 	mov	r4,r2
  800e98:	0801f100 	call	801f10 <__addsf3>
  800e9c:	880b883a 	mov	r5,r17
  800ea0:	1009883a 	mov	r4,r2
  800ea4:	080294c0 	call	80294c <__mulsf3>
  800ea8:	014d2534 	movhi	r5,13460
  800eac:	297c9f04 	addi	r5,r5,-3460
  800eb0:	1009883a 	mov	r4,r2
  800eb4:	0802d7c0 	call	802d7c <__subsf3>
  800eb8:	880b883a 	mov	r5,r17
  800ebc:	1009883a 	mov	r4,r2
  800ec0:	080294c0 	call	80294c <__mulsf3>
  800ec4:	014df434 	movhi	r5,14288
  800ec8:	29434044 	addi	r5,r5,3329
  800ecc:	1009883a 	mov	r4,r2
  800ed0:	0801f100 	call	801f10 <__addsf3>
  800ed4:	880b883a 	mov	r5,r17
  800ed8:	1009883a 	mov	r4,r2
  800edc:	080294c0 	call	80294c <__mulsf3>
  800ee0:	014eadb4 	movhi	r5,15030
  800ee4:	2942d844 	addi	r5,r5,2913
  800ee8:	1009883a 	mov	r4,r2
  800eec:	0802d7c0 	call	802d7c <__subsf3>
  800ef0:	880b883a 	mov	r5,r17
  800ef4:	1009883a 	mov	r4,r2
  800ef8:	080294c0 	call	80294c <__mulsf3>
  800efc:	014f4af4 	movhi	r5,15659
  800f00:	296aaac4 	addi	r5,r5,-21845
  800f04:	1009883a 	mov	r4,r2
  800f08:	0801f100 	call	801f10 <__addsf3>
  800f0c:	880b883a 	mov	r5,r17
  800f10:	1009883a 	mov	r4,r2
  800f14:	080294c0 	call	80294c <__mulsf3>
  800f18:	1029883a 	mov	r20,r2
  800f1c:	102d883a 	mov	r22,r2
  800f20:	008fa6b4 	movhi	r2,16026
  800f24:	10a66644 	addi	r2,r2,-26215
  800f28:	143fbb0e 	bge	r2,r16,800e18 <__alt_data_end+0xff800e18>
  800f2c:	008fd234 	movhi	r2,16200
  800f30:	14002716 	blt	r2,r16,800fd0 <__kernel_cosf+0x2b8>
  800f34:	00bfc034 	movhi	r2,65280
  800f38:	80a1883a 	add	r16,r16,r2
  800f3c:	800b883a 	mov	r5,r16
  800f40:	010fe034 	movhi	r4,16256
  800f44:	0802d7c0 	call	802d7c <__subsf3>
  800f48:	102b883a 	mov	r21,r2
  800f4c:	8809883a 	mov	r4,r17
  800f50:	014fc034 	movhi	r5,16128
  800f54:	080294c0 	call	80294c <__mulsf3>
  800f58:	800b883a 	mov	r5,r16
  800f5c:	1009883a 	mov	r4,r2
  800f60:	0802d7c0 	call	802d7c <__subsf3>
  800f64:	8809883a 	mov	r4,r17
  800f68:	a00b883a 	mov	r5,r20
  800f6c:	1021883a 	mov	r16,r2
  800f70:	080294c0 	call	80294c <__mulsf3>
  800f74:	980b883a 	mov	r5,r19
  800f78:	9009883a 	mov	r4,r18
  800f7c:	1023883a 	mov	r17,r2
  800f80:	080294c0 	call	80294c <__mulsf3>
  800f84:	100b883a 	mov	r5,r2
  800f88:	8809883a 	mov	r4,r17
  800f8c:	0802d7c0 	call	802d7c <__subsf3>
  800f90:	100b883a 	mov	r5,r2
  800f94:	8009883a 	mov	r4,r16
  800f98:	0802d7c0 	call	802d7c <__subsf3>
  800f9c:	100b883a 	mov	r5,r2
  800fa0:	a809883a 	mov	r4,r21
  800fa4:	0802d7c0 	call	802d7c <__subsf3>
  800fa8:	dfc00717 	ldw	ra,28(sp)
  800fac:	dd800617 	ldw	r22,24(sp)
  800fb0:	dd400517 	ldw	r21,20(sp)
  800fb4:	dd000417 	ldw	r20,16(sp)
  800fb8:	dcc00317 	ldw	r19,12(sp)
  800fbc:	dc800217 	ldw	r18,8(sp)
  800fc0:	dc400117 	ldw	r17,4(sp)
  800fc4:	dc000017 	ldw	r16,0(sp)
  800fc8:	dec00804 	addi	sp,sp,32
  800fcc:	f800283a 	ret
  800fd0:	054fce34 	movhi	r21,16184
  800fd4:	040fa434 	movhi	r16,16016
  800fd8:	003fdc06 	br	800f4c <__alt_data_end+0xff800f4c>
  800fdc:	008fe034 	movhi	r2,16256
  800fe0:	003ff106 	br	800fa8 <__alt_data_end+0xff800fa8>

00800fe4 <__kernel_rem_pio2f>:
  800fe4:	deff9804 	addi	sp,sp,-416
  800fe8:	d8c06817 	ldw	r3,416(sp)
  800fec:	ddc06515 	stw	r23,404(sp)
  800ff0:	dd806415 	stw	r22,400(sp)
  800ff4:	18c5883a 	add	r2,r3,r3
  800ff8:	00c02074 	movhi	r3,129
  800ffc:	18d06604 	addi	r3,r3,16792
  801000:	1085883a 	add	r2,r2,r2
  801004:	1885883a 	add	r2,r3,r2
  801008:	dfc06715 	stw	ra,412(sp)
  80100c:	df006615 	stw	fp,408(sp)
  801010:	dd406315 	stw	r21,396(sp)
  801014:	dd006215 	stw	r20,392(sp)
  801018:	dcc06115 	stw	r19,388(sp)
  80101c:	dc806015 	stw	r18,384(sp)
  801020:	dc405f15 	stw	r17,380(sp)
  801024:	dc005e15 	stw	r16,376(sp)
  801028:	d9c05615 	stw	r7,344(sp)
  80102c:	30ffff44 	addi	r3,r6,-3
  801030:	d9005115 	stw	r4,324(sp)
  801034:	d9405415 	stw	r5,336(sp)
  801038:	15800017 	ldw	r22,0(r2)
  80103c:	3dffffc4 	addi	r23,r7,-1
  801040:	1802a716 	blt	r3,zero,801ae0 <__kernel_rem_pio2f+0xafc>
  801044:	1807d0fa 	srai	r3,r3,3
  801048:	d8c05515 	stw	r3,340(sp)
  80104c:	1802a216 	blt	r3,zero,801ad8 <__kernel_rem_pio2f+0xaf4>
  801050:	da005517 	ldw	r8,340(sp)
  801054:	b5c5883a 	add	r2,r22,r23
  801058:	42000044 	addi	r8,r8,1
  80105c:	400690fa 	slli	r3,r8,3
  801060:	da005815 	stw	r8,352(sp)
  801064:	da005517 	ldw	r8,340(sp)
  801068:	30c7c83a 	sub	r3,r6,r3
  80106c:	d8c05215 	stw	r3,328(sp)
  801070:	45e3c83a 	sub	r17,r8,r23
  801074:	10000f16 	blt	r2,zero,8010b4 <__kernel_rem_pio2f+0xd0>
  801078:	d8c06917 	ldw	r3,420(sp)
  80107c:	8c65883a 	add	r18,r17,r17
  801080:	94a5883a 	add	r18,r18,r18
  801084:	1445883a 	add	r2,r2,r17
  801088:	dcc02804 	addi	r19,sp,160
  80108c:	1ca5883a 	add	r18,r3,r18
  801090:	14000044 	addi	r16,r2,1
  801094:	88011f16 	blt	r17,zero,801514 <__kernel_rem_pio2f+0x530>
  801098:	91000017 	ldw	r4,0(r18)
  80109c:	08032d00 	call	8032d0 <__floatsisf>
  8010a0:	98800015 	stw	r2,0(r19)
  8010a4:	8c400044 	addi	r17,r17,1
  8010a8:	9cc00104 	addi	r19,r19,4
  8010ac:	94800104 	addi	r18,r18,4
  8010b0:	8c3ff81e 	bne	r17,r16,801094 <__alt_data_end+0xff801094>
  8010b4:	b0002116 	blt	r22,zero,80113c <__kernel_rem_pio2f+0x158>
  8010b8:	d9805117 	ldw	r6,324(sp)
  8010bc:	bde3883a 	add	r17,r23,r23
  8010c0:	b4c00044 	addi	r19,r22,1
  8010c4:	8c63883a 	add	r17,r17,r17
  8010c8:	9ce7883a 	add	r19,r19,r19
  8010cc:	8c000104 	addi	r16,r17,4
  8010d0:	9ce7883a 	add	r19,r19,r19
  8010d4:	d9002804 	addi	r4,sp,160
  8010d8:	d825883a 	mov	r18,sp
  8010dc:	2463883a 	add	r17,r4,r17
  8010e0:	dce7883a 	add	r19,sp,r19
  8010e4:	3421883a 	add	r16,r6,r16
  8010e8:	dd805315 	stw	r22,332(sp)
  8010ec:	3039883a 	mov	fp,r6
  8010f0:	b8012616 	blt	r23,zero,80158c <__kernel_rem_pio2f+0x5a8>
  8010f4:	e029883a 	mov	r20,fp
  8010f8:	882b883a 	mov	r21,r17
  8010fc:	002d883a 	mov	r22,zero
  801100:	a9400017 	ldw	r5,0(r21)
  801104:	a1000017 	ldw	r4,0(r20)
  801108:	a5000104 	addi	r20,r20,4
  80110c:	ad7fff04 	addi	r21,r21,-4
  801110:	080294c0 	call	80294c <__mulsf3>
  801114:	b009883a 	mov	r4,r22
  801118:	100b883a 	mov	r5,r2
  80111c:	0801f100 	call	801f10 <__addsf3>
  801120:	102d883a 	mov	r22,r2
  801124:	a43ff61e 	bne	r20,r16,801100 <__alt_data_end+0xff801100>
  801128:	95800015 	stw	r22,0(r18)
  80112c:	94800104 	addi	r18,r18,4
  801130:	8c400104 	addi	r17,r17,4
  801134:	94ffee1e 	bne	r18,r19,8010f0 <__alt_data_end+0xff8010f0>
  801138:	dd805317 	ldw	r22,332(sp)
  80113c:	00900034 	movhi	r2,16384
  801140:	da005617 	ldw	r8,344(sp)
  801144:	10bfff84 	addi	r2,r2,-2
  801148:	b085883a 	add	r2,r22,r2
  80114c:	b0ffffc4 	addi	r3,r22,-1
  801150:	1085883a 	add	r2,r2,r2
  801154:	1085883a 	add	r2,r2,r2
  801158:	4221883a 	add	r16,r8,r8
  80115c:	18c7883a 	add	r3,r3,r3
  801160:	da005117 	ldw	r8,324(sp)
  801164:	d9803c04 	addi	r6,sp,240
  801168:	308d883a 	add	r6,r6,r2
  80116c:	18c7883a 	add	r3,r3,r3
  801170:	8421883a 	add	r16,r16,r16
  801174:	11000104 	addi	r4,r2,4
  801178:	d8c7883a 	add	r3,sp,r3
  80117c:	d9805915 	stw	r6,356(sp)
  801180:	d9803c04 	addi	r6,sp,240
  801184:	4421883a 	add	r16,r8,r16
  801188:	310d883a 	add	r6,r6,r4
  80118c:	da3fff04 	addi	r8,sp,-4
  801190:	18c03c04 	addi	r3,r3,240
  801194:	d9805a15 	stw	r6,360(sp)
  801198:	b023883a 	mov	r17,r22
  80119c:	da005015 	stw	r8,320(sp)
  8011a0:	d8c05b15 	stw	r3,364(sp)
  8011a4:	dd805715 	stw	r22,348(sp)
  8011a8:	8c6b883a 	add	r21,r17,r17
  8011ac:	ad45883a 	add	r2,r21,r21
  8011b0:	d885883a 	add	r2,sp,r2
  8011b4:	15000017 	ldw	r20,0(r2)
  8011b8:	0440200e 	bge	zero,r17,80123c <__kernel_rem_pio2f+0x258>
  8011bc:	00900034 	movhi	r2,16384
  8011c0:	10bfffc4 	addi	r2,r2,-1
  8011c4:	88a7883a 	add	r19,r17,r2
  8011c8:	9ce7883a 	add	r19,r19,r19
  8011cc:	9ce7883a 	add	r19,r19,r19
  8011d0:	dc803c04 	addi	r18,sp,240
  8011d4:	dce7883a 	add	r19,sp,r19
  8011d8:	014ee034 	movhi	r5,15232
  8011dc:	a009883a 	mov	r4,r20
  8011e0:	080294c0 	call	80294c <__mulsf3>
  8011e4:	1009883a 	mov	r4,r2
  8011e8:	08032600 	call	803260 <__fixsfsi>
  8011ec:	1009883a 	mov	r4,r2
  8011f0:	08032d00 	call	8032d0 <__floatsisf>
  8011f4:	0150e034 	movhi	r5,17280
  8011f8:	1009883a 	mov	r4,r2
  8011fc:	102d883a 	mov	r22,r2
  801200:	080294c0 	call	80294c <__mulsf3>
  801204:	100b883a 	mov	r5,r2
  801208:	a009883a 	mov	r4,r20
  80120c:	0802d7c0 	call	802d7c <__subsf3>
  801210:	1009883a 	mov	r4,r2
  801214:	08032600 	call	803260 <__fixsfsi>
  801218:	99400017 	ldw	r5,0(r19)
  80121c:	90800015 	stw	r2,0(r18)
  801220:	b009883a 	mov	r4,r22
  801224:	0801f100 	call	801f10 <__addsf3>
  801228:	d8c05017 	ldw	r3,320(sp)
  80122c:	9cffff04 	addi	r19,r19,-4
  801230:	1029883a 	mov	r20,r2
  801234:	94800104 	addi	r18,r18,4
  801238:	98ffe71e 	bne	r19,r3,8011d8 <__alt_data_end+0xff8011d8>
  80123c:	d9405217 	ldw	r5,328(sp)
  801240:	a009883a 	mov	r4,r20
  801244:	0801db40 	call	801db4 <scalbnf>
  801248:	014f8034 	movhi	r5,15872
  80124c:	1009883a 	mov	r4,r2
  801250:	1025883a 	mov	r18,r2
  801254:	080294c0 	call	80294c <__mulsf3>
  801258:	1009883a 	mov	r4,r2
  80125c:	0801cb00 	call	801cb0 <floorf>
  801260:	01504034 	movhi	r5,16640
  801264:	1009883a 	mov	r4,r2
  801268:	080294c0 	call	80294c <__mulsf3>
  80126c:	100b883a 	mov	r5,r2
  801270:	9009883a 	mov	r4,r18
  801274:	0802d7c0 	call	802d7c <__subsf3>
  801278:	1009883a 	mov	r4,r2
  80127c:	1025883a 	mov	r18,r2
  801280:	08032600 	call	803260 <__fixsfsi>
  801284:	1009883a 	mov	r4,r2
  801288:	1029883a 	mov	r20,r2
  80128c:	08032d00 	call	8032d0 <__floatsisf>
  801290:	100b883a 	mov	r5,r2
  801294:	9009883a 	mov	r4,r18
  801298:	0802d7c0 	call	802d7c <__subsf3>
  80129c:	d9805217 	ldw	r6,328(sp)
  8012a0:	1013883a 	mov	r9,r2
  8012a4:	1011883a 	mov	r8,r2
  8012a8:	01809c0e 	bge	zero,r6,80151c <__kernel_rem_pio2f+0x538>
  8012ac:	88bfffc4 	addi	r2,r17,-1
  8012b0:	1085883a 	add	r2,r2,r2
  8012b4:	1085883a 	add	r2,r2,r2
  8012b8:	d885883a 	add	r2,sp,r2
  8012bc:	10803c04 	addi	r2,r2,240
  8012c0:	11000017 	ldw	r4,0(r2)
  8012c4:	00c00204 	movi	r3,8
  8012c8:	1987c83a 	sub	r3,r3,r6
  8012cc:	20cbd83a 	sra	r5,r4,r3
  8012d0:	04c001c4 	movi	r19,7
  8012d4:	99a7c83a 	sub	r19,r19,r6
  8012d8:	28c6983a 	sll	r3,r5,r3
  8012dc:	a169883a 	add	r20,r20,r5
  8012e0:	20c7c83a 	sub	r3,r4,r3
  8012e4:	1ce7d83a 	sra	r19,r3,r19
  8012e8:	10c00015 	stw	r3,0(r2)
  8012ec:	04c0270e 	bge	zero,r19,80138c <__kernel_rem_pio2f+0x3a8>
  8012f0:	a5000044 	addi	r20,r20,1
  8012f4:	0441d10e 	bge	zero,r17,801a3c <__kernel_rem_pio2f+0xa58>
  8012f8:	d8803c04 	addi	r2,sp,240
  8012fc:	0009883a 	mov	r4,zero
  801300:	0025883a 	mov	r18,zero
  801304:	01c03fc4 	movi	r7,255
  801308:	01804004 	movi	r6,256
  80130c:	00000706 	br	80132c <__kernel_rem_pio2f+0x348>
  801310:	30cbc83a 	sub	r5,r6,r3
  801314:	18000226 	beq	r3,zero,801320 <__kernel_rem_pio2f+0x33c>
  801318:	11400015 	stw	r5,0(r2)
  80131c:	04800044 	movi	r18,1
  801320:	21000044 	addi	r4,r4,1
  801324:	10800104 	addi	r2,r2,4
  801328:	2440080e 	bge	r4,r17,80134c <__kernel_rem_pio2f+0x368>
  80132c:	10c00017 	ldw	r3,0(r2)
  801330:	903ff726 	beq	r18,zero,801310 <__alt_data_end+0xff801310>
  801334:	38c7c83a 	sub	r3,r7,r3
  801338:	10c00015 	stw	r3,0(r2)
  80133c:	21000044 	addi	r4,r4,1
  801340:	04800044 	movi	r18,1
  801344:	10800104 	addi	r2,r2,4
  801348:	247ff816 	blt	r4,r17,80132c <__alt_data_end+0xff80132c>
  80134c:	d9805217 	ldw	r6,328(sp)
  801350:	01800c0e 	bge	zero,r6,801384 <__kernel_rem_pio2f+0x3a0>
  801354:	00800044 	movi	r2,1
  801358:	30807926 	beq	r6,r2,801540 <__kernel_rem_pio2f+0x55c>
  80135c:	00800084 	movi	r2,2
  801360:	3080081e 	bne	r6,r2,801384 <__kernel_rem_pio2f+0x3a0>
  801364:	88bfffc4 	addi	r2,r17,-1
  801368:	1085883a 	add	r2,r2,r2
  80136c:	1085883a 	add	r2,r2,r2
  801370:	d885883a 	add	r2,sp,r2
  801374:	10803c04 	addi	r2,r2,240
  801378:	10c00017 	ldw	r3,0(r2)
  80137c:	18c00fcc 	andi	r3,r3,63
  801380:	10c00015 	stw	r3,0(r2)
  801384:	00800084 	movi	r2,2
  801388:	98805326 	beq	r19,r2,8014d8 <__kernel_rem_pio2f+0x4f4>
  80138c:	4009883a 	mov	r4,r8
  801390:	000b883a 	mov	r5,zero
  801394:	da005d15 	stw	r8,372(sp)
  801398:	08028180 	call	802818 <__eqsf2>
  80139c:	da005d17 	ldw	r8,372(sp)
  8013a0:	10017a1e 	bne	r2,zero,80198c <__kernel_rem_pio2f+0x9a8>
  8013a4:	da005717 	ldw	r8,348(sp)
  8013a8:	8cbfffc4 	addi	r18,r17,-1
  8013ac:	92000e16 	blt	r18,r8,8013e8 <__kernel_rem_pio2f+0x404>
  8013b0:	00d00034 	movhi	r3,16384
  8013b4:	18ffffc4 	addi	r3,r3,-1
  8013b8:	88c5883a 	add	r2,r17,r3
  8013bc:	1085883a 	add	r2,r2,r2
  8013c0:	d9405a17 	ldw	r5,360(sp)
  8013c4:	1085883a 	add	r2,r2,r2
  8013c8:	d9003c04 	addi	r4,sp,240
  8013cc:	2085883a 	add	r2,r4,r2
  8013d0:	0007883a 	mov	r3,zero
  8013d4:	11000017 	ldw	r4,0(r2)
  8013d8:	10bfff04 	addi	r2,r2,-4
  8013dc:	1906b03a 	or	r3,r3,r4
  8013e0:	117ffc1e 	bne	r2,r5,8013d4 <__alt_data_end+0xff8013d4>
  8013e4:	18006f1e 	bne	r3,zero,8015a4 <__kernel_rem_pio2f+0x5c0>
  8013e8:	d9805b17 	ldw	r6,364(sp)
  8013ec:	30800017 	ldw	r2,0(r6)
  8013f0:	1001941e 	bne	r2,zero,801a44 <__kernel_rem_pio2f+0xa60>
  8013f4:	d8805917 	ldw	r2,356(sp)
  8013f8:	05000044 	movi	r20,1
  8013fc:	10bfff04 	addi	r2,r2,-4
  801400:	10c00117 	ldw	r3,4(r2)
  801404:	a5000044 	addi	r20,r20,1
  801408:	183ffc26 	beq	r3,zero,8013fc <__alt_data_end+0xff8013fc>
  80140c:	8d29883a 	add	r20,r17,r20
  801410:	88800044 	addi	r2,r17,1
  801414:	dd005315 	stw	r20,332(sp)
  801418:	a0802b16 	blt	r20,r2,8014c8 <__kernel_rem_pio2f+0x4e4>
  80141c:	da005517 	ldw	r8,340(sp)
  801420:	d8c05617 	ldw	r3,344(sp)
  801424:	d9805817 	ldw	r6,352(sp)
  801428:	40a5883a 	add	r18,r8,r2
  80142c:	da005317 	ldw	r8,332(sp)
  801430:	1c63883a 	add	r17,r3,r17
  801434:	d8c06917 	ldw	r3,420(sp)
  801438:	322b883a 	add	r21,r6,r8
  80143c:	94a5883a 	add	r18,r18,r18
  801440:	8c63883a 	add	r17,r17,r17
  801444:	1085883a 	add	r2,r2,r2
  801448:	ad6b883a 	add	r21,r21,r21
  80144c:	94a5883a 	add	r18,r18,r18
  801450:	8c63883a 	add	r17,r17,r17
  801454:	1085883a 	add	r2,r2,r2
  801458:	ad6b883a 	add	r21,r21,r21
  80145c:	d9002804 	addi	r4,sp,160
  801460:	1ca5883a 	add	r18,r3,r18
  801464:	2463883a 	add	r17,r4,r17
  801468:	d8a7883a 	add	r19,sp,r2
  80146c:	1d6b883a 	add	r21,r3,r21
  801470:	91000017 	ldw	r4,0(r18)
  801474:	08032d00 	call	8032d0 <__floatsisf>
  801478:	88800015 	stw	r2,0(r17)
  80147c:	b8001416 	blt	r23,zero,8014d0 <__kernel_rem_pio2f+0x4ec>
  801480:	dd005117 	ldw	r20,324(sp)
  801484:	882d883a 	mov	r22,r17
  801488:	0039883a 	mov	fp,zero
  80148c:	b1400017 	ldw	r5,0(r22)
  801490:	a1000017 	ldw	r4,0(r20)
  801494:	a5000104 	addi	r20,r20,4
  801498:	b5bfff04 	addi	r22,r22,-4
  80149c:	080294c0 	call	80294c <__mulsf3>
  8014a0:	e009883a 	mov	r4,fp
  8014a4:	100b883a 	mov	r5,r2
  8014a8:	0801f100 	call	801f10 <__addsf3>
  8014ac:	1039883a 	mov	fp,r2
  8014b0:	a43ff61e 	bne	r20,r16,80148c <__alt_data_end+0xff80148c>
  8014b4:	9f000015 	stw	fp,0(r19)
  8014b8:	94800104 	addi	r18,r18,4
  8014bc:	8c400104 	addi	r17,r17,4
  8014c0:	9cc00104 	addi	r19,r19,4
  8014c4:	957fea1e 	bne	r18,r21,801470 <__alt_data_end+0xff801470>
  8014c8:	dc405317 	ldw	r17,332(sp)
  8014cc:	003f3606 	br	8011a8 <__alt_data_end+0xff8011a8>
  8014d0:	0039883a 	mov	fp,zero
  8014d4:	003ff706 	br	8014b4 <__alt_data_end+0xff8014b4>
  8014d8:	480b883a 	mov	r5,r9
  8014dc:	010fe034 	movhi	r4,16256
  8014e0:	0802d7c0 	call	802d7c <__subsf3>
  8014e4:	1011883a 	mov	r8,r2
  8014e8:	903fa826 	beq	r18,zero,80138c <__alt_data_end+0xff80138c>
  8014ec:	d9405217 	ldw	r5,328(sp)
  8014f0:	010fe034 	movhi	r4,16256
  8014f4:	d8805c15 	stw	r2,368(sp)
  8014f8:	0801db40 	call	801db4 <scalbnf>
  8014fc:	d8c05c17 	ldw	r3,368(sp)
  801500:	100b883a 	mov	r5,r2
  801504:	1809883a 	mov	r4,r3
  801508:	0802d7c0 	call	802d7c <__subsf3>
  80150c:	1011883a 	mov	r8,r2
  801510:	003f9e06 	br	80138c <__alt_data_end+0xff80138c>
  801514:	0005883a 	mov	r2,zero
  801518:	003ee106 	br	8010a0 <__alt_data_end+0xff8010a0>
  80151c:	d8c05217 	ldw	r3,328(sp)
  801520:	1800101e 	bne	r3,zero,801564 <__kernel_rem_pio2f+0x580>
  801524:	88bfffc4 	addi	r2,r17,-1
  801528:	1085883a 	add	r2,r2,r2
  80152c:	1085883a 	add	r2,r2,r2
  801530:	d885883a 	add	r2,sp,r2
  801534:	14c03c17 	ldw	r19,240(r2)
  801538:	9827d23a 	srai	r19,r19,8
  80153c:	003f6b06 	br	8012ec <__alt_data_end+0xff8012ec>
  801540:	88bfffc4 	addi	r2,r17,-1
  801544:	1085883a 	add	r2,r2,r2
  801548:	1085883a 	add	r2,r2,r2
  80154c:	d885883a 	add	r2,sp,r2
  801550:	10803c04 	addi	r2,r2,240
  801554:	10c00017 	ldw	r3,0(r2)
  801558:	18c01fcc 	andi	r3,r3,127
  80155c:	10c00015 	stw	r3,0(r2)
  801560:	003f8806 	br	801384 <__alt_data_end+0xff801384>
  801564:	014fc034 	movhi	r5,16128
  801568:	1009883a 	mov	r4,r2
  80156c:	d8805d15 	stw	r2,372(sp)
  801570:	d8805c15 	stw	r2,368(sp)
  801574:	08028900 	call	802890 <__gesf2>
  801578:	da005d17 	ldw	r8,372(sp)
  80157c:	da405c17 	ldw	r9,368(sp)
  801580:	10007d0e 	bge	r2,zero,801778 <__kernel_rem_pio2f+0x794>
  801584:	0027883a 	mov	r19,zero
  801588:	003f8006 	br	80138c <__alt_data_end+0xff80138c>
  80158c:	002d883a 	mov	r22,zero
  801590:	95800015 	stw	r22,0(r18)
  801594:	94800104 	addi	r18,r18,4
  801598:	8c400104 	addi	r17,r17,4
  80159c:	94fed41e 	bne	r18,r19,8010f0 <__alt_data_end+0xff8010f0>
  8015a0:	003ee506 	br	801138 <__alt_data_end+0xff801138>
  8015a4:	9485883a 	add	r2,r18,r18
  8015a8:	d9805217 	ldw	r6,328(sp)
  8015ac:	1085883a 	add	r2,r2,r2
  8015b0:	d885883a 	add	r2,sp,r2
  8015b4:	10803c17 	ldw	r2,240(r2)
  8015b8:	31bffe04 	addi	r6,r6,-8
  8015bc:	dd005315 	stw	r20,332(sp)
  8015c0:	d9805215 	stw	r6,328(sp)
  8015c4:	dd805717 	ldw	r22,348(sp)
  8015c8:	10000e1e 	bne	r2,zero,801604 <__kernel_rem_pio2f+0x620>
  8015cc:	00900034 	movhi	r2,16384
  8015d0:	10bfffc4 	addi	r2,r2,-1
  8015d4:	9085883a 	add	r2,r18,r2
  8015d8:	1085883a 	add	r2,r2,r2
  8015dc:	1085883a 	add	r2,r2,r2
  8015e0:	da003c04 	addi	r8,sp,240
  8015e4:	4085883a 	add	r2,r8,r2
  8015e8:	3007883a 	mov	r3,r6
  8015ec:	10bfff04 	addi	r2,r2,-4
  8015f0:	11000117 	ldw	r4,4(r2)
  8015f4:	94bfffc4 	addi	r18,r18,-1
  8015f8:	18fffe04 	addi	r3,r3,-8
  8015fc:	203ffb26 	beq	r4,zero,8015ec <__alt_data_end+0xff8015ec>
  801600:	d8c05215 	stw	r3,328(sp)
  801604:	d9405217 	ldw	r5,328(sp)
  801608:	010fe034 	movhi	r4,16256
  80160c:	0801db40 	call	801db4 <scalbnf>
  801610:	102f883a 	mov	r23,r2
  801614:	90011316 	blt	r18,zero,801a64 <__kernel_rem_pio2f+0xa80>
  801618:	9491883a 	add	r8,r18,r18
  80161c:	4207883a 	add	r3,r8,r8
  801620:	d8e3883a 	add	r17,sp,r3
  801624:	d8803c04 	addi	r2,sp,240
  801628:	da005115 	stw	r8,324(sp)
  80162c:	10f9883a 	add	fp,r2,r3
  801630:	dc003b04 	addi	r16,sp,236
  801634:	882b883a 	mov	r21,r17
  801638:	e1000017 	ldw	r4,0(fp)
  80163c:	ad7fff04 	addi	r21,r21,-4
  801640:	e73fff04 	addi	fp,fp,-4
  801644:	08032d00 	call	8032d0 <__floatsisf>
  801648:	b80b883a 	mov	r5,r23
  80164c:	1009883a 	mov	r4,r2
  801650:	080294c0 	call	80294c <__mulsf3>
  801654:	b809883a 	mov	r4,r23
  801658:	014ee034 	movhi	r5,15232
  80165c:	a8800115 	stw	r2,4(r21)
  801660:	080294c0 	call	80294c <__mulsf3>
  801664:	102f883a 	mov	r23,r2
  801668:	e43ff31e 	bne	fp,r16,801638 <__alt_data_end+0xff801638>
  80166c:	d9bfff04 	addi	r6,sp,-4
  801670:	d9805015 	stw	r6,320(sp)
  801674:	002b883a 	mov	r21,zero
  801678:	0039883a 	mov	fp,zero
  80167c:	b0001316 	blt	r22,zero,8016cc <__kernel_rem_pio2f+0x6e8>
  801680:	05c02074 	movhi	r23,129
  801684:	bdd05c04 	addi	r23,r23,16752
  801688:	8829883a 	mov	r20,r17
  80168c:	010ff274 	movhi	r4,16329
  801690:	0039883a 	mov	fp,zero
  801694:	0021883a 	mov	r16,zero
  801698:	00000406 	br	8016ac <__kernel_rem_pio2f+0x6c8>
  80169c:	a5000104 	addi	r20,r20,4
  8016a0:	ac000a16 	blt	r21,r16,8016cc <__kernel_rem_pio2f+0x6e8>
  8016a4:	b9000017 	ldw	r4,0(r23)
  8016a8:	bdc00104 	addi	r23,r23,4
  8016ac:	a1400017 	ldw	r5,0(r20)
  8016b0:	84000044 	addi	r16,r16,1
  8016b4:	080294c0 	call	80294c <__mulsf3>
  8016b8:	e009883a 	mov	r4,fp
  8016bc:	100b883a 	mov	r5,r2
  8016c0:	0801f100 	call	801f10 <__addsf3>
  8016c4:	1039883a 	mov	fp,r2
  8016c8:	b43ff40e 	bge	r22,r16,80169c <__alt_data_end+0xff80169c>
  8016cc:	ad45883a 	add	r2,r21,r21
  8016d0:	1085883a 	add	r2,r2,r2
  8016d4:	d8c05017 	ldw	r3,320(sp)
  8016d8:	d885883a 	add	r2,sp,r2
  8016dc:	17001415 	stw	fp,80(r2)
  8016e0:	8c7fff04 	addi	r17,r17,-4
  8016e4:	ad400044 	addi	r21,r21,1
  8016e8:	1c7fe31e 	bne	r3,r17,801678 <__alt_data_end+0xff801678>
  8016ec:	d8c06817 	ldw	r3,416(sp)
  8016f0:	00800084 	movi	r2,2
  8016f4:	10c04516 	blt	r2,r3,80180c <__kernel_rem_pio2f+0x828>
  8016f8:	00c02316 	blt	zero,r3,801788 <__kernel_rem_pio2f+0x7a4>
  8016fc:	1800101e 	bne	r3,zero,801740 <__kernel_rem_pio2f+0x75c>
  801700:	d9805117 	ldw	r6,324(sp)
  801704:	da001404 	addi	r8,sp,80
  801708:	0005883a 	mov	r2,zero
  80170c:	31a1883a 	add	r16,r6,r6
  801710:	4421883a 	add	r16,r8,r16
  801714:	047fffc4 	movi	r17,-1
  801718:	81400017 	ldw	r5,0(r16)
  80171c:	1009883a 	mov	r4,r2
  801720:	94bfffc4 	addi	r18,r18,-1
  801724:	0801f100 	call	801f10 <__addsf3>
  801728:	843fff04 	addi	r16,r16,-4
  80172c:	947ffa1e 	bne	r18,r17,801718 <__alt_data_end+0xff801718>
  801730:	98000126 	beq	r19,zero,801738 <__kernel_rem_pio2f+0x754>
  801734:	10a0003c 	xorhi	r2,r2,32768
  801738:	d8c05417 	ldw	r3,336(sp)
  80173c:	18800015 	stw	r2,0(r3)
  801740:	da005317 	ldw	r8,332(sp)
  801744:	408001cc 	andi	r2,r8,7
  801748:	dfc06717 	ldw	ra,412(sp)
  80174c:	df006617 	ldw	fp,408(sp)
  801750:	ddc06517 	ldw	r23,404(sp)
  801754:	dd806417 	ldw	r22,400(sp)
  801758:	dd406317 	ldw	r21,396(sp)
  80175c:	dd006217 	ldw	r20,392(sp)
  801760:	dcc06117 	ldw	r19,388(sp)
  801764:	dc806017 	ldw	r18,384(sp)
  801768:	dc405f17 	ldw	r17,380(sp)
  80176c:	dc005e17 	ldw	r16,376(sp)
  801770:	dec06804 	addi	sp,sp,416
  801774:	f800283a 	ret
  801778:	a5000044 	addi	r20,r20,1
  80177c:	0440b30e 	bge	zero,r17,801a4c <__kernel_rem_pio2f+0xa68>
  801780:	04c00084 	movi	r19,2
  801784:	003edc06 	br	8012f8 <__alt_data_end+0xff8012f8>
  801788:	d9805117 	ldw	r6,324(sp)
  80178c:	da001404 	addi	r8,sp,80
  801790:	dc401304 	addi	r17,sp,76
  801794:	31a1883a 	add	r16,r6,r6
  801798:	4421883a 	add	r16,r8,r16
  80179c:	0005883a 	mov	r2,zero
  8017a0:	81400017 	ldw	r5,0(r16)
  8017a4:	1009883a 	mov	r4,r2
  8017a8:	843fff04 	addi	r16,r16,-4
  8017ac:	0801f100 	call	801f10 <__addsf3>
  8017b0:	847ffb1e 	bne	r16,r17,8017a0 <__alt_data_end+0xff8017a0>
  8017b4:	d9001417 	ldw	r4,80(sp)
  8017b8:	98006b26 	beq	r19,zero,801968 <__kernel_rem_pio2f+0x984>
  8017bc:	d9805417 	ldw	r6,336(sp)
  8017c0:	10e0003c 	xorhi	r3,r2,32768
  8017c4:	100b883a 	mov	r5,r2
  8017c8:	30c00015 	stw	r3,0(r6)
  8017cc:	0802d7c0 	call	802d7c <__subsf3>
  8017d0:	1009883a 	mov	r4,r2
  8017d4:	0480090e 	bge	zero,r18,8017fc <__kernel_rem_pio2f+0x818>
  8017d8:	dc401504 	addi	r17,sp,84
  8017dc:	04000044 	movi	r16,1
  8017e0:	89400017 	ldw	r5,0(r17)
  8017e4:	84000044 	addi	r16,r16,1
  8017e8:	8c400104 	addi	r17,r17,4
  8017ec:	0801f100 	call	801f10 <__addsf3>
  8017f0:	1009883a 	mov	r4,r2
  8017f4:	943ffa0e 	bge	r18,r16,8017e0 <__alt_data_end+0xff8017e0>
  8017f8:	98000126 	beq	r19,zero,801800 <__kernel_rem_pio2f+0x81c>
  8017fc:	20a0003c 	xorhi	r2,r4,32768
  801800:	da005417 	ldw	r8,336(sp)
  801804:	40800115 	stw	r2,4(r8)
  801808:	003fcd06 	br	801740 <__alt_data_end+0xff801740>
  80180c:	da006817 	ldw	r8,416(sp)
  801810:	008000c4 	movi	r2,3
  801814:	40bfca1e 	bne	r8,r2,801740 <__alt_data_end+0xff801740>
  801818:	0480a60e 	bge	zero,r18,801ab4 <__kernel_rem_pio2f+0xad0>
  80181c:	d8c05117 	ldw	r3,324(sp)
  801820:	04500034 	movhi	r17,16384
  801824:	8c7fffc4 	addi	r17,r17,-1
  801828:	18c5883a 	add	r2,r3,r3
  80182c:	9463883a 	add	r17,r18,r17
  801830:	d885883a 	add	r2,sp,r2
  801834:	8c63883a 	add	r17,r17,r17
  801838:	8c63883a 	add	r17,r17,r17
  80183c:	15c01417 	ldw	r23,80(r2)
  801840:	dd401404 	addi	r21,sp,80
  801844:	8d800104 	addi	r22,r17,4
  801848:	adad883a 	add	r22,r21,r22
  80184c:	ac63883a 	add	r17,r21,r17
  801850:	d9801304 	addi	r6,sp,76
  801854:	8d000017 	ldw	r20,0(r17)
  801858:	b80b883a 	mov	r5,r23
  80185c:	d9805c15 	stw	r6,368(sp)
  801860:	a009883a 	mov	r4,r20
  801864:	0801f100 	call	801f10 <__addsf3>
  801868:	100b883a 	mov	r5,r2
  80186c:	a009883a 	mov	r4,r20
  801870:	1021883a 	mov	r16,r2
  801874:	0802d7c0 	call	802d7c <__subsf3>
  801878:	b80b883a 	mov	r5,r23
  80187c:	1009883a 	mov	r4,r2
  801880:	0801f100 	call	801f10 <__addsf3>
  801884:	d9805c17 	ldw	r6,368(sp)
  801888:	b0800015 	stw	r2,0(r22)
  80188c:	8c7fff04 	addi	r17,r17,-4
  801890:	8c000115 	stw	r16,4(r17)
  801894:	b5bfff04 	addi	r22,r22,-4
  801898:	802f883a 	mov	r23,r16
  80189c:	347fed1e 	bne	r6,r17,801854 <__alt_data_end+0xff801854>
  8018a0:	00800044 	movi	r2,1
  8018a4:	1480830e 	bge	r2,r18,801ab4 <__kernel_rem_pio2f+0xad0>
  8018a8:	d9805117 	ldw	r6,324(sp)
  8018ac:	31a1883a 	add	r16,r6,r6
  8018b0:	dc05883a 	add	r2,sp,r16
  8018b4:	04100034 	movhi	r16,16384
  8018b8:	843fffc4 	addi	r16,r16,-1
  8018bc:	9421883a 	add	r16,r18,r16
  8018c0:	8421883a 	add	r16,r16,r16
  8018c4:	8421883a 	add	r16,r16,r16
  8018c8:	84400104 	addi	r17,r16,4
  8018cc:	15801417 	ldw	r22,80(r2)
  8018d0:	ac63883a 	add	r17,r21,r17
  8018d4:	ac21883a 	add	r16,r21,r16
  8018d8:	8825883a 	mov	r18,r17
  8018dc:	85c00017 	ldw	r23,0(r16)
  8018e0:	b009883a 	mov	r4,r22
  8018e4:	843fff04 	addi	r16,r16,-4
  8018e8:	b80b883a 	mov	r5,r23
  8018ec:	0801f100 	call	801f10 <__addsf3>
  8018f0:	100b883a 	mov	r5,r2
  8018f4:	b809883a 	mov	r4,r23
  8018f8:	1029883a 	mov	r20,r2
  8018fc:	0802d7c0 	call	802d7c <__subsf3>
  801900:	b00b883a 	mov	r5,r22
  801904:	1009883a 	mov	r4,r2
  801908:	0801f100 	call	801f10 <__addsf3>
  80190c:	90800015 	stw	r2,0(r18)
  801910:	85000115 	stw	r20,4(r16)
  801914:	94bfff04 	addi	r18,r18,-4
  801918:	a02d883a 	mov	r22,r20
  80191c:	ac3fef1e 	bne	r21,r16,8018dc <__alt_data_end+0xff8018dc>
  801920:	dc001504 	addi	r16,sp,84
  801924:	0005883a 	mov	r2,zero
  801928:	89400017 	ldw	r5,0(r17)
  80192c:	1009883a 	mov	r4,r2
  801930:	8c7fff04 	addi	r17,r17,-4
  801934:	0801f100 	call	801f10 <__addsf3>
  801938:	847ffb1e 	bne	r16,r17,801928 <__alt_data_end+0xff801928>
  80193c:	98005f26 	beq	r19,zero,801abc <__kernel_rem_pio2f+0xad8>
  801940:	d8c01517 	ldw	r3,84(sp)
  801944:	d9001417 	ldw	r4,80(sp)
  801948:	d9805417 	ldw	r6,336(sp)
  80194c:	10a0003c 	xorhi	r2,r2,32768
  801950:	2120003c 	xorhi	r4,r4,32768
  801954:	18e0003c 	xorhi	r3,r3,32768
  801958:	31000015 	stw	r4,0(r6)
  80195c:	30c00115 	stw	r3,4(r6)
  801960:	30800215 	stw	r2,8(r6)
  801964:	003f7606 	br	801740 <__alt_data_end+0xff801740>
  801968:	d8c05417 	ldw	r3,336(sp)
  80196c:	100b883a 	mov	r5,r2
  801970:	18800015 	stw	r2,0(r3)
  801974:	0802d7c0 	call	802d7c <__subsf3>
  801978:	1009883a 	mov	r4,r2
  80197c:	04bf9616 	blt	zero,r18,8017d8 <__alt_data_end+0xff8017d8>
  801980:	da005417 	ldw	r8,336(sp)
  801984:	40800115 	stw	r2,4(r8)
  801988:	003f6d06 	br	801740 <__alt_data_end+0xff801740>
  80198c:	d8c05217 	ldw	r3,328(sp)
  801990:	4009883a 	mov	r4,r8
  801994:	dd005315 	stw	r20,332(sp)
  801998:	00cbc83a 	sub	r5,zero,r3
  80199c:	dd805717 	ldw	r22,348(sp)
  8019a0:	0410e034 	movhi	r16,17280
  8019a4:	0801db40 	call	801db4 <scalbnf>
  8019a8:	800b883a 	mov	r5,r16
  8019ac:	1009883a 	mov	r4,r2
  8019b0:	1025883a 	mov	r18,r2
  8019b4:	08028900 	call	802890 <__gesf2>
  8019b8:	10003116 	blt	r2,zero,801a80 <__kernel_rem_pio2f+0xa9c>
  8019bc:	014ee034 	movhi	r5,15232
  8019c0:	9009883a 	mov	r4,r18
  8019c4:	080294c0 	call	80294c <__mulsf3>
  8019c8:	1009883a 	mov	r4,r2
  8019cc:	08032600 	call	803260 <__fixsfsi>
  8019d0:	1009883a 	mov	r4,r2
  8019d4:	08032d00 	call	8032d0 <__floatsisf>
  8019d8:	800b883a 	mov	r5,r16
  8019dc:	1009883a 	mov	r4,r2
  8019e0:	102f883a 	mov	r23,r2
  8019e4:	080294c0 	call	80294c <__mulsf3>
  8019e8:	100b883a 	mov	r5,r2
  8019ec:	9009883a 	mov	r4,r18
  8019f0:	0802d7c0 	call	802d7c <__subsf3>
  8019f4:	1009883a 	mov	r4,r2
  8019f8:	ad6b883a 	add	r21,r21,r21
  8019fc:	08032600 	call	803260 <__fixsfsi>
  801a00:	dd6b883a 	add	r21,sp,r21
  801a04:	8c800044 	addi	r18,r17,1
  801a08:	ad403c04 	addi	r21,r21,240
  801a0c:	9487883a 	add	r3,r18,r18
  801a10:	18c7883a 	add	r3,r3,r3
  801a14:	b809883a 	mov	r4,r23
  801a18:	a8800015 	stw	r2,0(r21)
  801a1c:	d8e1883a 	add	r16,sp,r3
  801a20:	08032600 	call	803260 <__fixsfsi>
  801a24:	d9805217 	ldw	r6,328(sp)
  801a28:	84003c04 	addi	r16,r16,240
  801a2c:	80800015 	stw	r2,0(r16)
  801a30:	31800204 	addi	r6,r6,8
  801a34:	d9805215 	stw	r6,328(sp)
  801a38:	003ef206 	br	801604 <__alt_data_end+0xff801604>
  801a3c:	0025883a 	mov	r18,zero
  801a40:	003e4206 	br	80134c <__alt_data_end+0xff80134c>
  801a44:	05000044 	movi	r20,1
  801a48:	003e7006 	br	80140c <__alt_data_end+0xff80140c>
  801a4c:	480b883a 	mov	r5,r9
  801a50:	010fe034 	movhi	r4,16256
  801a54:	0802d7c0 	call	802d7c <__subsf3>
  801a58:	1011883a 	mov	r8,r2
  801a5c:	04c00084 	movi	r19,2
  801a60:	003e4a06 	br	80138c <__alt_data_end+0xff80138c>
  801a64:	da006817 	ldw	r8,416(sp)
  801a68:	00800084 	movi	r2,2
  801a6c:	12000e16 	blt	r2,r8,801aa8 <__kernel_rem_pio2f+0xac4>
  801a70:	02000b16 	blt	zero,r8,801aa0 <__kernel_rem_pio2f+0xabc>
  801a74:	403f321e 	bne	r8,zero,801740 <__alt_data_end+0xff801740>
  801a78:	0005883a 	mov	r2,zero
  801a7c:	003f2c06 	br	801730 <__alt_data_end+0xff801730>
  801a80:	ad61883a 	add	r16,r21,r21
  801a84:	dc21883a 	add	r16,sp,r16
  801a88:	9009883a 	mov	r4,r18
  801a8c:	84003c04 	addi	r16,r16,240
  801a90:	08032600 	call	803260 <__fixsfsi>
  801a94:	80800015 	stw	r2,0(r16)
  801a98:	8825883a 	mov	r18,r17
  801a9c:	003ed906 	br	801604 <__alt_data_end+0xff801604>
  801aa0:	0005883a 	mov	r2,zero
  801aa4:	003f4306 	br	8017b4 <__alt_data_end+0xff8017b4>
  801aa8:	d8c06817 	ldw	r3,416(sp)
  801aac:	008000c4 	movi	r2,3
  801ab0:	18bf231e 	bne	r3,r2,801740 <__alt_data_end+0xff801740>
  801ab4:	0005883a 	mov	r2,zero
  801ab8:	983fa11e 	bne	r19,zero,801940 <__alt_data_end+0xff801940>
  801abc:	da005417 	ldw	r8,336(sp)
  801ac0:	d8c01517 	ldw	r3,84(sp)
  801ac4:	40800215 	stw	r2,8(r8)
  801ac8:	d8801417 	ldw	r2,80(sp)
  801acc:	40c00115 	stw	r3,4(r8)
  801ad0:	40800015 	stw	r2,0(r8)
  801ad4:	003f1a06 	br	801740 <__alt_data_end+0xff801740>
  801ad8:	d8005515 	stw	zero,340(sp)
  801adc:	003d5c06 	br	801050 <__alt_data_end+0xff801050>
  801ae0:	30c00104 	addi	r3,r6,4
  801ae4:	003d5706 	br	801044 <__alt_data_end+0xff801044>

00801ae8 <__kernel_sinf>:
  801ae8:	00a00034 	movhi	r2,32768
  801aec:	defff904 	addi	sp,sp,-28
  801af0:	10bfffc4 	addi	r2,r2,-1
  801af4:	00cc8034 	movhi	r3,12800
  801af8:	dd000415 	stw	r20,16(sp)
  801afc:	dcc00315 	stw	r19,12(sp)
  801b00:	dc000015 	stw	r16,0(sp)
  801b04:	dfc00615 	stw	ra,24(sp)
  801b08:	dd400515 	stw	r21,20(sp)
  801b0c:	dc800215 	stw	r18,8(sp)
  801b10:	dc400115 	stw	r17,4(sp)
  801b14:	1104703a 	and	r2,r2,r4
  801b18:	18ffffc4 	addi	r3,r3,-1
  801b1c:	2021883a 	mov	r16,r4
  801b20:	2827883a 	mov	r19,r5
  801b24:	3029883a 	mov	r20,r6
  801b28:	18800216 	blt	r3,r2,801b34 <__kernel_sinf+0x4c>
  801b2c:	08032600 	call	803260 <__fixsfsi>
  801b30:	10005926 	beq	r2,zero,801c98 <__kernel_sinf+0x1b0>
  801b34:	800b883a 	mov	r5,r16
  801b38:	8009883a 	mov	r4,r16
  801b3c:	080294c0 	call	80294c <__mulsf3>
  801b40:	100b883a 	mov	r5,r2
  801b44:	8009883a 	mov	r4,r16
  801b48:	1023883a 	mov	r17,r2
  801b4c:	080294c0 	call	80294c <__mulsf3>
  801b50:	014bcbf4 	movhi	r5,12079
  801b54:	297274c4 	addi	r5,r5,-13869
  801b58:	8809883a 	mov	r4,r17
  801b5c:	1025883a 	mov	r18,r2
  801b60:	080294c0 	call	80294c <__mulsf3>
  801b64:	014cb5f4 	movhi	r5,13015
  801b68:	294bcd04 	addi	r5,r5,12084
  801b6c:	1009883a 	mov	r4,r2
  801b70:	0802d7c0 	call	802d7c <__subsf3>
  801b74:	880b883a 	mov	r5,r17
  801b78:	1009883a 	mov	r4,r2
  801b7c:	080294c0 	call	80294c <__mulsf3>
  801b80:	014d8e74 	movhi	r5,13881
  801b84:	297bc6c4 	addi	r5,r5,-4325
  801b88:	1009883a 	mov	r4,r2
  801b8c:	0801f100 	call	801f10 <__addsf3>
  801b90:	880b883a 	mov	r5,r17
  801b94:	1009883a 	mov	r4,r2
  801b98:	080294c0 	call	80294c <__mulsf3>
  801b9c:	014e5434 	movhi	r5,14672
  801ba0:	29434044 	addi	r5,r5,3329
  801ba4:	1009883a 	mov	r4,r2
  801ba8:	0802d7c0 	call	802d7c <__subsf3>
  801bac:	880b883a 	mov	r5,r17
  801bb0:	1009883a 	mov	r4,r2
  801bb4:	080294c0 	call	80294c <__mulsf3>
  801bb8:	014f0274 	movhi	r5,15369
  801bbc:	29622244 	addi	r5,r5,-30583
  801bc0:	1009883a 	mov	r4,r2
  801bc4:	0801f100 	call	801f10 <__addsf3>
  801bc8:	102b883a 	mov	r21,r2
  801bcc:	a0002426 	beq	r20,zero,801c60 <__kernel_sinf+0x178>
  801bd0:	014fc034 	movhi	r5,16128
  801bd4:	9809883a 	mov	r4,r19
  801bd8:	080294c0 	call	80294c <__mulsf3>
  801bdc:	a80b883a 	mov	r5,r21
  801be0:	9009883a 	mov	r4,r18
  801be4:	1029883a 	mov	r20,r2
  801be8:	080294c0 	call	80294c <__mulsf3>
  801bec:	100b883a 	mov	r5,r2
  801bf0:	a009883a 	mov	r4,r20
  801bf4:	0802d7c0 	call	802d7c <__subsf3>
  801bf8:	880b883a 	mov	r5,r17
  801bfc:	1009883a 	mov	r4,r2
  801c00:	080294c0 	call	80294c <__mulsf3>
  801c04:	980b883a 	mov	r5,r19
  801c08:	1009883a 	mov	r4,r2
  801c0c:	0802d7c0 	call	802d7c <__subsf3>
  801c10:	014f8af4 	movhi	r5,15915
  801c14:	296aaac4 	addi	r5,r5,-21845
  801c18:	9009883a 	mov	r4,r18
  801c1c:	1023883a 	mov	r17,r2
  801c20:	080294c0 	call	80294c <__mulsf3>
  801c24:	100b883a 	mov	r5,r2
  801c28:	8809883a 	mov	r4,r17
  801c2c:	0801f100 	call	801f10 <__addsf3>
  801c30:	100b883a 	mov	r5,r2
  801c34:	8009883a 	mov	r4,r16
  801c38:	0802d7c0 	call	802d7c <__subsf3>
  801c3c:	dfc00617 	ldw	ra,24(sp)
  801c40:	dd400517 	ldw	r21,20(sp)
  801c44:	dd000417 	ldw	r20,16(sp)
  801c48:	dcc00317 	ldw	r19,12(sp)
  801c4c:	dc800217 	ldw	r18,8(sp)
  801c50:	dc400117 	ldw	r17,4(sp)
  801c54:	dc000017 	ldw	r16,0(sp)
  801c58:	dec00704 	addi	sp,sp,28
  801c5c:	f800283a 	ret
  801c60:	8809883a 	mov	r4,r17
  801c64:	100b883a 	mov	r5,r2
  801c68:	080294c0 	call	80294c <__mulsf3>
  801c6c:	014f8af4 	movhi	r5,15915
  801c70:	296aaac4 	addi	r5,r5,-21845
  801c74:	1009883a 	mov	r4,r2
  801c78:	0802d7c0 	call	802d7c <__subsf3>
  801c7c:	900b883a 	mov	r5,r18
  801c80:	1009883a 	mov	r4,r2
  801c84:	080294c0 	call	80294c <__mulsf3>
  801c88:	800b883a 	mov	r5,r16
  801c8c:	1009883a 	mov	r4,r2
  801c90:	0801f100 	call	801f10 <__addsf3>
  801c94:	003fe906 	br	801c3c <__alt_data_end+0xff801c3c>
  801c98:	8005883a 	mov	r2,r16
  801c9c:	003fe706 	br	801c3c <__alt_data_end+0xff801c3c>

00801ca0 <fabsf>:
  801ca0:	00a00034 	movhi	r2,32768
  801ca4:	10bfffc4 	addi	r2,r2,-1
  801ca8:	2084703a 	and	r2,r4,r2
  801cac:	f800283a 	ret

00801cb0 <floorf>:
  801cb0:	defffa04 	addi	sp,sp,-24
  801cb4:	dc800215 	stw	r18,8(sp)
  801cb8:	04a00034 	movhi	r18,32768
  801cbc:	94bfffc4 	addi	r18,r18,-1
  801cc0:	9124703a 	and	r18,r18,r4
  801cc4:	dc400115 	stw	r17,4(sp)
  801cc8:	9022d5fa 	srli	r17,r18,23
  801ccc:	dc000015 	stw	r16,0(sp)
  801cd0:	dfc00515 	stw	ra,20(sp)
  801cd4:	dd000415 	stw	r20,16(sp)
  801cd8:	dcc00315 	stw	r19,12(sp)
  801cdc:	8c7fe044 	addi	r17,r17,-127
  801ce0:	00800584 	movi	r2,22
  801ce4:	2021883a 	mov	r16,r4
  801ce8:	14401216 	blt	r2,r17,801d34 <floorf+0x84>
  801cec:	2029883a 	mov	r20,r4
  801cf0:	88001f16 	blt	r17,zero,801d70 <floorf+0xc0>
  801cf4:	04802034 	movhi	r18,128
  801cf8:	94bfffc4 	addi	r18,r18,-1
  801cfc:	9465d83a 	sra	r18,r18,r17
  801d00:	9104703a 	and	r2,r18,r4
  801d04:	10000e26 	beq	r2,zero,801d40 <floorf+0x90>
  801d08:	015c52b4 	movhi	r5,29002
  801d0c:	297cb284 	addi	r5,r5,-3382
  801d10:	0801f100 	call	801f10 <__addsf3>
  801d14:	000b883a 	mov	r5,zero
  801d18:	1009883a 	mov	r4,r2
  801d1c:	08028900 	call	802890 <__gesf2>
  801d20:	0080070e 	bge	zero,r2,801d40 <floorf+0x90>
  801d24:	80001c16 	blt	r16,zero,801d98 <floorf+0xe8>
  801d28:	0484303a 	nor	r2,zero,r18
  801d2c:	1504703a 	and	r2,r2,r20
  801d30:	00000406 	br	801d44 <floorf+0x94>
  801d34:	009fe034 	movhi	r2,32640
  801d38:	10bfffc4 	addi	r2,r2,-1
  801d3c:	14800936 	bltu	r2,r18,801d64 <floorf+0xb4>
  801d40:	8005883a 	mov	r2,r16
  801d44:	dfc00517 	ldw	ra,20(sp)
  801d48:	dd000417 	ldw	r20,16(sp)
  801d4c:	dcc00317 	ldw	r19,12(sp)
  801d50:	dc800217 	ldw	r18,8(sp)
  801d54:	dc400117 	ldw	r17,4(sp)
  801d58:	dc000017 	ldw	r16,0(sp)
  801d5c:	dec00604 	addi	sp,sp,24
  801d60:	f800283a 	ret
  801d64:	200b883a 	mov	r5,r4
  801d68:	0801f100 	call	801f10 <__addsf3>
  801d6c:	003ff506 	br	801d44 <__alt_data_end+0xff801d44>
  801d70:	015c52b4 	movhi	r5,29002
  801d74:	297cb284 	addi	r5,r5,-3382
  801d78:	0801f100 	call	801f10 <__addsf3>
  801d7c:	000b883a 	mov	r5,zero
  801d80:	1009883a 	mov	r4,r2
  801d84:	08028900 	call	802890 <__gesf2>
  801d88:	00bfed0e 	bge	zero,r2,801d40 <__alt_data_end+0xff801d40>
  801d8c:	80000616 	blt	r16,zero,801da8 <floorf+0xf8>
  801d90:	0005883a 	mov	r2,zero
  801d94:	003feb06 	br	801d44 <__alt_data_end+0xff801d44>
  801d98:	00802034 	movhi	r2,128
  801d9c:	1445d83a 	sra	r2,r2,r17
  801da0:	1429883a 	add	r20,r2,r16
  801da4:	003fe006 	br	801d28 <__alt_data_end+0xff801d28>
  801da8:	903fe526 	beq	r18,zero,801d40 <__alt_data_end+0xff801d40>
  801dac:	00afe034 	movhi	r2,49024
  801db0:	003fe406 	br	801d44 <__alt_data_end+0xff801d44>

00801db4 <scalbnf>:
  801db4:	00e00034 	movhi	r3,32768
  801db8:	18ffffc4 	addi	r3,r3,-1
  801dbc:	1906703a 	and	r3,r3,r4
  801dc0:	200f883a 	mov	r7,r4
  801dc4:	18001f26 	beq	r3,zero,801e44 <scalbnf+0x90>
  801dc8:	defffe04 	addi	sp,sp,-8
  801dcc:	009fe034 	movhi	r2,32640
  801dd0:	dc000015 	stw	r16,0(sp)
  801dd4:	dfc00115 	stw	ra,4(sp)
  801dd8:	10bfffc4 	addi	r2,r2,-1
  801ddc:	2821883a 	mov	r16,r5
  801de0:	10c01236 	bltu	r2,r3,801e2c <scalbnf+0x78>
  801de4:	00802034 	movhi	r2,128
  801de8:	10bfffc4 	addi	r2,r2,-1
  801dec:	10c0172e 	bgeu	r2,r3,801e4c <scalbnf+0x98>
  801df0:	1806d5fa 	srli	r3,r3,23
  801df4:	2005883a 	mov	r2,r4
  801df8:	1c07883a 	add	r3,r3,r16
  801dfc:	01003f84 	movi	r4,254
  801e00:	20c02316 	blt	r4,r3,801e90 <scalbnf+0xdc>
  801e04:	00c01b0e 	bge	zero,r3,801e74 <scalbnf+0xc0>
  801e08:	180695fa 	slli	r3,r3,23
  801e0c:	01602034 	movhi	r5,32896
  801e10:	297fffc4 	addi	r5,r5,-1
  801e14:	1144703a 	and	r2,r2,r5
  801e18:	10c4b03a 	or	r2,r2,r3
  801e1c:	dfc00117 	ldw	ra,4(sp)
  801e20:	dc000017 	ldw	r16,0(sp)
  801e24:	dec00204 	addi	sp,sp,8
  801e28:	f800283a 	ret
  801e2c:	200b883a 	mov	r5,r4
  801e30:	0801f100 	call	801f10 <__addsf3>
  801e34:	dfc00117 	ldw	ra,4(sp)
  801e38:	dc000017 	ldw	r16,0(sp)
  801e3c:	dec00204 	addi	sp,sp,8
  801e40:	f800283a 	ret
  801e44:	2005883a 	mov	r2,r4
  801e48:	f800283a 	ret
  801e4c:	01530034 	movhi	r5,19456
  801e50:	080294c0 	call	80294c <__mulsf3>
  801e54:	00fffff4 	movhi	r3,65535
  801e58:	18cf2c04 	addi	r3,r3,15536
  801e5c:	100f883a 	mov	r7,r2
  801e60:	80c01716 	blt	r16,r3,801ec0 <scalbnf+0x10c>
  801e64:	119fe02c 	andhi	r6,r2,32640
  801e68:	300dd5fa 	srai	r6,r6,23
  801e6c:	30fff9c4 	addi	r3,r6,-25
  801e70:	003fe106 	br	801df8 <__alt_data_end+0xff801df8>
  801e74:	013ffa84 	movi	r4,-22
  801e78:	1900160e 	bge	r3,r4,801ed4 <scalbnf+0x120>
  801e7c:	00b0d414 	movui	r2,50000
  801e80:	14000316 	blt	r2,r16,801e90 <scalbnf+0xdc>
  801e84:	040368b4 	movhi	r16,3490
  801e88:	84109804 	addi	r16,r16,16992
  801e8c:	00000206 	br	801e98 <scalbnf+0xe4>
  801e90:	041c52b4 	movhi	r16,29002
  801e94:	843cb284 	addi	r16,r16,-3382
  801e98:	380b883a 	mov	r5,r7
  801e9c:	8009883a 	mov	r4,r16
  801ea0:	0801ef80 	call	801ef8 <copysignf>
  801ea4:	800b883a 	mov	r5,r16
  801ea8:	1009883a 	mov	r4,r2
  801eac:	080294c0 	call	80294c <__mulsf3>
  801eb0:	dfc00117 	ldw	ra,4(sp)
  801eb4:	dc000017 	ldw	r16,0(sp)
  801eb8:	dec00204 	addi	sp,sp,8
  801ebc:	f800283a 	ret
  801ec0:	014368b4 	movhi	r5,3490
  801ec4:	29509804 	addi	r5,r5,16992
  801ec8:	1009883a 	mov	r4,r2
  801ecc:	080294c0 	call	80294c <__mulsf3>
  801ed0:	003fd806 	br	801e34 <__alt_data_end+0xff801e34>
  801ed4:	18c00644 	addi	r3,r3,25
  801ed8:	180c95fa 	slli	r6,r3,23
  801edc:	01202034 	movhi	r4,32896
  801ee0:	213fffc4 	addi	r4,r4,-1
  801ee4:	1108703a 	and	r4,r2,r4
  801ee8:	014cc034 	movhi	r5,13056
  801eec:	3108b03a 	or	r4,r6,r4
  801ef0:	080294c0 	call	80294c <__mulsf3>
  801ef4:	003fcf06 	br	801e34 <__alt_data_end+0xff801e34>

00801ef8 <copysignf>:
  801ef8:	00e00034 	movhi	r3,32768
  801efc:	18ffffc4 	addi	r3,r3,-1
  801f00:	28a0002c 	andhi	r2,r5,32768
  801f04:	20c8703a 	and	r4,r4,r3
  801f08:	2084b03a 	or	r2,r4,r2
  801f0c:	f800283a 	ret

00801f10 <__addsf3>:
  801f10:	defffc04 	addi	sp,sp,-16
  801f14:	2004d7fa 	srli	r2,r4,31
  801f18:	280cd5fa 	srli	r6,r5,23
  801f1c:	dc000015 	stw	r16,0(sp)
  801f20:	00c02034 	movhi	r3,128
  801f24:	2020d5fa 	srli	r16,r4,23
  801f28:	280ed7fa 	srli	r7,r5,31
  801f2c:	18ffffc4 	addi	r3,r3,-1
  801f30:	dc400115 	stw	r17,4(sp)
  801f34:	1908703a 	and	r4,r3,r4
  801f38:	194a703a 	and	r5,r3,r5
  801f3c:	dfc00315 	stw	ra,12(sp)
  801f40:	dc800215 	stw	r18,8(sp)
  801f44:	14403fcc 	andi	r17,r2,255
  801f48:	84003fcc 	andi	r16,r16,255
  801f4c:	200890fa 	slli	r4,r4,3
  801f50:	31803fcc 	andi	r6,r6,255
  801f54:	280a90fa 	slli	r5,r5,3
  801f58:	89c05026 	beq	r17,r7,80209c <__addsf3+0x18c>
  801f5c:	8185c83a 	sub	r2,r16,r6
  801f60:	00807a0e 	bge	zero,r2,80214c <__addsf3+0x23c>
  801f64:	30001e1e 	bne	r6,zero,801fe0 <__addsf3+0xd0>
  801f68:	28006d1e 	bne	r5,zero,802120 <__addsf3+0x210>
  801f6c:	208001cc 	andi	r2,r4,7
  801f70:	10000426 	beq	r2,zero,801f84 <__addsf3+0x74>
  801f74:	208003cc 	andi	r2,r4,15
  801f78:	00c00104 	movi	r3,4
  801f7c:	10c00126 	beq	r2,r3,801f84 <__addsf3+0x74>
  801f80:	20c9883a 	add	r4,r4,r3
  801f84:	2081002c 	andhi	r2,r4,1024
  801f88:	10003926 	beq	r2,zero,802070 <__addsf3+0x160>
  801f8c:	84000044 	addi	r16,r16,1
  801f90:	00803fc4 	movi	r2,255
  801f94:	80807826 	beq	r16,r2,802178 <__addsf3+0x268>
  801f98:	200891ba 	slli	r4,r4,6
  801f9c:	8805883a 	mov	r2,r17
  801fa0:	2008d27a 	srli	r4,r4,9
  801fa4:	84003fcc 	andi	r16,r16,255
  801fa8:	800695fa 	slli	r3,r16,23
  801fac:	10803fcc 	andi	r2,r2,255
  801fb0:	04002034 	movhi	r16,128
  801fb4:	843fffc4 	addi	r16,r16,-1
  801fb8:	100497fa 	slli	r2,r2,31
  801fbc:	2408703a 	and	r4,r4,r16
  801fc0:	20e0b03a 	or	r16,r4,r3
  801fc4:	8084b03a 	or	r2,r16,r2
  801fc8:	dfc00317 	ldw	ra,12(sp)
  801fcc:	dc800217 	ldw	r18,8(sp)
  801fd0:	dc400117 	ldw	r17,4(sp)
  801fd4:	dc000017 	ldw	r16,0(sp)
  801fd8:	dec00404 	addi	sp,sp,16
  801fdc:	f800283a 	ret
  801fe0:	00c03fc4 	movi	r3,255
  801fe4:	80ffe126 	beq	r16,r3,801f6c <__alt_data_end+0xff801f6c>
  801fe8:	29410034 	orhi	r5,r5,1024
  801fec:	00c006c4 	movi	r3,27
  801ff0:	18807516 	blt	r3,r2,8021c8 <__addsf3+0x2b8>
  801ff4:	00c00804 	movi	r3,32
  801ff8:	1887c83a 	sub	r3,r3,r2
  801ffc:	28c6983a 	sll	r3,r5,r3
  802000:	288ad83a 	srl	r5,r5,r2
  802004:	1804c03a 	cmpne	r2,r3,zero
  802008:	288ab03a 	or	r5,r5,r2
  80200c:	2149c83a 	sub	r4,r4,r5
  802010:	2081002c 	andhi	r2,r4,1024
  802014:	10001426 	beq	r2,zero,802068 <__addsf3+0x158>
  802018:	04810034 	movhi	r18,1024
  80201c:	94bfffc4 	addi	r18,r18,-1
  802020:	24a4703a 	and	r18,r4,r18
  802024:	9009883a 	mov	r4,r18
  802028:	080486c0 	call	80486c <__clzsi2>
  80202c:	10bffec4 	addi	r2,r2,-5
  802030:	90a4983a 	sll	r18,r18,r2
  802034:	14005416 	blt	r2,r16,802188 <__addsf3+0x278>
  802038:	1405c83a 	sub	r2,r2,r16
  80203c:	11000044 	addi	r4,r2,1
  802040:	00800804 	movi	r2,32
  802044:	1105c83a 	sub	r2,r2,r4
  802048:	9084983a 	sll	r2,r18,r2
  80204c:	9124d83a 	srl	r18,r18,r4
  802050:	0021883a 	mov	r16,zero
  802054:	1008c03a 	cmpne	r4,r2,zero
  802058:	9108b03a 	or	r4,r18,r4
  80205c:	003fc306 	br	801f6c <__alt_data_end+0xff801f6c>
  802060:	1000db26 	beq	r2,zero,8023d0 <__addsf3+0x4c0>
  802064:	1009883a 	mov	r4,r2
  802068:	208001cc 	andi	r2,r4,7
  80206c:	103fc11e 	bne	r2,zero,801f74 <__alt_data_end+0xff801f74>
  802070:	2006d0fa 	srli	r3,r4,3
  802074:	01003fc4 	movi	r4,255
  802078:	8805883a 	mov	r2,r17
  80207c:	8100241e 	bne	r16,r4,802110 <__addsf3+0x200>
  802080:	18006e26 	beq	r3,zero,80223c <__addsf3+0x32c>
  802084:	19001034 	orhi	r4,r3,64
  802088:	00c02034 	movhi	r3,128
  80208c:	18ffffc4 	addi	r3,r3,-1
  802090:	043fffc4 	movi	r16,-1
  802094:	20c8703a 	and	r4,r4,r3
  802098:	003fc206 	br	801fa4 <__alt_data_end+0xff801fa4>
  80209c:	8187c83a 	sub	r3,r16,r6
  8020a0:	00c03e0e 	bge	zero,r3,80219c <__addsf3+0x28c>
  8020a4:	30002326 	beq	r6,zero,802134 <__addsf3+0x224>
  8020a8:	01803fc4 	movi	r6,255
  8020ac:	81bfaf26 	beq	r16,r6,801f6c <__alt_data_end+0xff801f6c>
  8020b0:	29410034 	orhi	r5,r5,1024
  8020b4:	018006c4 	movi	r6,27
  8020b8:	30c07416 	blt	r6,r3,80228c <__addsf3+0x37c>
  8020bc:	01800804 	movi	r6,32
  8020c0:	30cdc83a 	sub	r6,r6,r3
  8020c4:	298c983a 	sll	r6,r5,r6
  8020c8:	28cad83a 	srl	r5,r5,r3
  8020cc:	3006c03a 	cmpne	r3,r6,zero
  8020d0:	28cab03a 	or	r5,r5,r3
  8020d4:	2149883a 	add	r4,r4,r5
  8020d8:	20c1002c 	andhi	r3,r4,1024
  8020dc:	183fe226 	beq	r3,zero,802068 <__alt_data_end+0xff802068>
  8020e0:	84000044 	addi	r16,r16,1
  8020e4:	00c03fc4 	movi	r3,255
  8020e8:	80c05426 	beq	r16,r3,80223c <__addsf3+0x32c>
  8020ec:	00bf0034 	movhi	r2,64512
  8020f0:	10bfffc4 	addi	r2,r2,-1
  8020f4:	20c0004c 	andi	r3,r4,1
  8020f8:	2088703a 	and	r4,r4,r2
  8020fc:	2008d07a 	srli	r4,r4,1
  802100:	20c8b03a 	or	r4,r4,r3
  802104:	003f9906 	br	801f6c <__alt_data_end+0xff801f6c>
  802108:	0007883a 	mov	r3,zero
  80210c:	0005883a 	mov	r2,zero
  802110:	01002034 	movhi	r4,128
  802114:	213fffc4 	addi	r4,r4,-1
  802118:	1908703a 	and	r4,r3,r4
  80211c:	003fa106 	br	801fa4 <__alt_data_end+0xff801fa4>
  802120:	10bfffc4 	addi	r2,r2,-1
  802124:	103fb926 	beq	r2,zero,80200c <__alt_data_end+0xff80200c>
  802128:	00c03fc4 	movi	r3,255
  80212c:	80ffaf1e 	bne	r16,r3,801fec <__alt_data_end+0xff801fec>
  802130:	003f8e06 	br	801f6c <__alt_data_end+0xff801f6c>
  802134:	283f8d26 	beq	r5,zero,801f6c <__alt_data_end+0xff801f6c>
  802138:	18ffffc4 	addi	r3,r3,-1
  80213c:	183fe526 	beq	r3,zero,8020d4 <__alt_data_end+0xff8020d4>
  802140:	01803fc4 	movi	r6,255
  802144:	81bfdb1e 	bne	r16,r6,8020b4 <__alt_data_end+0xff8020b4>
  802148:	003f8806 	br	801f6c <__alt_data_end+0xff801f6c>
  80214c:	1000201e 	bne	r2,zero,8021d0 <__addsf3+0x2c0>
  802150:	80800044 	addi	r2,r16,1
  802154:	10803fcc 	andi	r2,r2,255
  802158:	01800044 	movi	r6,1
  80215c:	3080450e 	bge	r6,r2,802274 <__addsf3+0x364>
  802160:	2165c83a 	sub	r18,r4,r5
  802164:	90c1002c 	andhi	r3,r18,1024
  802168:	18002b26 	beq	r3,zero,802218 <__addsf3+0x308>
  80216c:	2925c83a 	sub	r18,r5,r4
  802170:	3823883a 	mov	r17,r7
  802174:	003fab06 	br	802024 <__alt_data_end+0xff802024>
  802178:	8805883a 	mov	r2,r17
  80217c:	043fffc4 	movi	r16,-1
  802180:	0009883a 	mov	r4,zero
  802184:	003f8706 	br	801fa4 <__alt_data_end+0xff801fa4>
  802188:	013f0034 	movhi	r4,64512
  80218c:	213fffc4 	addi	r4,r4,-1
  802190:	80a1c83a 	sub	r16,r16,r2
  802194:	9108703a 	and	r4,r18,r4
  802198:	003f7406 	br	801f6c <__alt_data_end+0xff801f6c>
  80219c:	1800411e 	bne	r3,zero,8022a4 <__addsf3+0x394>
  8021a0:	80c00044 	addi	r3,r16,1
  8021a4:	19c03fcc 	andi	r7,r3,255
  8021a8:	01800044 	movi	r6,1
  8021ac:	31c0260e 	bge	r6,r7,802248 <__addsf3+0x338>
  8021b0:	01803fc4 	movi	r6,255
  8021b4:	19802126 	beq	r3,r6,80223c <__addsf3+0x32c>
  8021b8:	2149883a 	add	r4,r4,r5
  8021bc:	2008d07a 	srli	r4,r4,1
  8021c0:	1821883a 	mov	r16,r3
  8021c4:	003f6906 	br	801f6c <__alt_data_end+0xff801f6c>
  8021c8:	01400044 	movi	r5,1
  8021cc:	003f8f06 	br	80200c <__alt_data_end+0xff80200c>
  8021d0:	8000151e 	bne	r16,zero,802228 <__addsf3+0x318>
  8021d4:	20002f26 	beq	r4,zero,802294 <__addsf3+0x384>
  8021d8:	0084303a 	nor	r2,zero,r2
  8021dc:	10000a26 	beq	r2,zero,802208 <__addsf3+0x2f8>
  8021e0:	00c03fc4 	movi	r3,255
  8021e4:	30c02b26 	beq	r6,r3,802294 <__addsf3+0x384>
  8021e8:	00c006c4 	movi	r3,27
  8021ec:	18806d16 	blt	r3,r2,8023a4 <__addsf3+0x494>
  8021f0:	00c00804 	movi	r3,32
  8021f4:	1887c83a 	sub	r3,r3,r2
  8021f8:	20c6983a 	sll	r3,r4,r3
  8021fc:	2084d83a 	srl	r2,r4,r2
  802200:	1808c03a 	cmpne	r4,r3,zero
  802204:	1108b03a 	or	r4,r2,r4
  802208:	2909c83a 	sub	r4,r5,r4
  80220c:	3021883a 	mov	r16,r6
  802210:	3823883a 	mov	r17,r7
  802214:	003f7e06 	br	802010 <__alt_data_end+0xff802010>
  802218:	903f821e 	bne	r18,zero,802024 <__alt_data_end+0xff802024>
  80221c:	0005883a 	mov	r2,zero
  802220:	0021883a 	mov	r16,zero
  802224:	003fba06 	br	802110 <__alt_data_end+0xff802110>
  802228:	00c03fc4 	movi	r3,255
  80222c:	30c01926 	beq	r6,r3,802294 <__addsf3+0x384>
  802230:	0085c83a 	sub	r2,zero,r2
  802234:	21010034 	orhi	r4,r4,1024
  802238:	003feb06 	br	8021e8 <__alt_data_end+0xff8021e8>
  80223c:	043fffc4 	movi	r16,-1
  802240:	0009883a 	mov	r4,zero
  802244:	003f5706 	br	801fa4 <__alt_data_end+0xff801fa4>
  802248:	80004a1e 	bne	r16,zero,802374 <__addsf3+0x464>
  80224c:	20005926 	beq	r4,zero,8023b4 <__addsf3+0x4a4>
  802250:	283f4626 	beq	r5,zero,801f6c <__alt_data_end+0xff801f6c>
  802254:	2149883a 	add	r4,r4,r5
  802258:	2081002c 	andhi	r2,r4,1024
  80225c:	103f8226 	beq	r2,zero,802068 <__alt_data_end+0xff802068>
  802260:	00bf0034 	movhi	r2,64512
  802264:	10bfffc4 	addi	r2,r2,-1
  802268:	3021883a 	mov	r16,r6
  80226c:	2088703a 	and	r4,r4,r2
  802270:	003f3e06 	br	801f6c <__alt_data_end+0xff801f6c>
  802274:	8000121e 	bne	r16,zero,8022c0 <__addsf3+0x3b0>
  802278:	2000261e 	bne	r4,zero,802314 <__addsf3+0x404>
  80227c:	283fa226 	beq	r5,zero,802108 <__alt_data_end+0xff802108>
  802280:	2809883a 	mov	r4,r5
  802284:	3823883a 	mov	r17,r7
  802288:	003f3806 	br	801f6c <__alt_data_end+0xff801f6c>
  80228c:	01400044 	movi	r5,1
  802290:	003f9006 	br	8020d4 <__alt_data_end+0xff8020d4>
  802294:	2809883a 	mov	r4,r5
  802298:	3021883a 	mov	r16,r6
  80229c:	3823883a 	mov	r17,r7
  8022a0:	003f3206 	br	801f6c <__alt_data_end+0xff801f6c>
  8022a4:	80000c1e 	bne	r16,zero,8022d8 <__addsf3+0x3c8>
  8022a8:	20002f26 	beq	r4,zero,802368 <__addsf3+0x458>
  8022ac:	00c6303a 	nor	r3,zero,r3
  8022b0:	18002b1e 	bne	r3,zero,802360 <__addsf3+0x450>
  8022b4:	2149883a 	add	r4,r4,r5
  8022b8:	3021883a 	mov	r16,r6
  8022bc:	003f8606 	br	8020d8 <__alt_data_end+0xff8020d8>
  8022c0:	20001b1e 	bne	r4,zero,802330 <__addsf3+0x420>
  8022c4:	28003926 	beq	r5,zero,8023ac <__addsf3+0x49c>
  8022c8:	2809883a 	mov	r4,r5
  8022cc:	3823883a 	mov	r17,r7
  8022d0:	04003fc4 	movi	r16,255
  8022d4:	003f2506 	br	801f6c <__alt_data_end+0xff801f6c>
  8022d8:	01c03fc4 	movi	r7,255
  8022dc:	31c02226 	beq	r6,r7,802368 <__addsf3+0x458>
  8022e0:	00c7c83a 	sub	r3,zero,r3
  8022e4:	21010034 	orhi	r4,r4,1024
  8022e8:	01c006c4 	movi	r7,27
  8022ec:	38c03616 	blt	r7,r3,8023c8 <__addsf3+0x4b8>
  8022f0:	01c00804 	movi	r7,32
  8022f4:	38cfc83a 	sub	r7,r7,r3
  8022f8:	21ce983a 	sll	r7,r4,r7
  8022fc:	20c6d83a 	srl	r3,r4,r3
  802300:	3808c03a 	cmpne	r4,r7,zero
  802304:	1906b03a 	or	r3,r3,r4
  802308:	1949883a 	add	r4,r3,r5
  80230c:	3021883a 	mov	r16,r6
  802310:	003f7106 	br	8020d8 <__alt_data_end+0xff8020d8>
  802314:	283f1526 	beq	r5,zero,801f6c <__alt_data_end+0xff801f6c>
  802318:	2145c83a 	sub	r2,r4,r5
  80231c:	10c1002c 	andhi	r3,r2,1024
  802320:	183f4f26 	beq	r3,zero,802060 <__alt_data_end+0xff802060>
  802324:	2909c83a 	sub	r4,r5,r4
  802328:	3823883a 	mov	r17,r7
  80232c:	003f0f06 	br	801f6c <__alt_data_end+0xff801f6c>
  802330:	28001a26 	beq	r5,zero,80239c <__addsf3+0x48c>
  802334:	2008d0fa 	srli	r4,r4,3
  802338:	2080102c 	andhi	r2,r4,64
  80233c:	10000526 	beq	r2,zero,802354 <__addsf3+0x444>
  802340:	280ad0fa 	srli	r5,r5,3
  802344:	2880102c 	andhi	r2,r5,64
  802348:	1000021e 	bne	r2,zero,802354 <__addsf3+0x444>
  80234c:	2809883a 	mov	r4,r5
  802350:	3823883a 	mov	r17,r7
  802354:	200890fa 	slli	r4,r4,3
  802358:	04003fc4 	movi	r16,255
  80235c:	003f0306 	br	801f6c <__alt_data_end+0xff801f6c>
  802360:	01c03fc4 	movi	r7,255
  802364:	31ffe01e 	bne	r6,r7,8022e8 <__alt_data_end+0xff8022e8>
  802368:	2809883a 	mov	r4,r5
  80236c:	3021883a 	mov	r16,r6
  802370:	003efe06 	br	801f6c <__alt_data_end+0xff801f6c>
  802374:	20001126 	beq	r4,zero,8023bc <__addsf3+0x4ac>
  802378:	28000826 	beq	r5,zero,80239c <__addsf3+0x48c>
  80237c:	2008d0fa 	srli	r4,r4,3
  802380:	2080102c 	andhi	r2,r4,64
  802384:	103ff326 	beq	r2,zero,802354 <__alt_data_end+0xff802354>
  802388:	280ad0fa 	srli	r5,r5,3
  80238c:	2880102c 	andhi	r2,r5,64
  802390:	103ff01e 	bne	r2,zero,802354 <__alt_data_end+0xff802354>
  802394:	2809883a 	mov	r4,r5
  802398:	003fee06 	br	802354 <__alt_data_end+0xff802354>
  80239c:	04003fc4 	movi	r16,255
  8023a0:	003ef206 	br	801f6c <__alt_data_end+0xff801f6c>
  8023a4:	01000044 	movi	r4,1
  8023a8:	003f9706 	br	802208 <__alt_data_end+0xff802208>
  8023ac:	0005883a 	mov	r2,zero
  8023b0:	003f3406 	br	802084 <__alt_data_end+0xff802084>
  8023b4:	2809883a 	mov	r4,r5
  8023b8:	003eec06 	br	801f6c <__alt_data_end+0xff801f6c>
  8023bc:	2809883a 	mov	r4,r5
  8023c0:	04003fc4 	movi	r16,255
  8023c4:	003ee906 	br	801f6c <__alt_data_end+0xff801f6c>
  8023c8:	00c00044 	movi	r3,1
  8023cc:	003fce06 	br	802308 <__alt_data_end+0xff802308>
  8023d0:	0005883a 	mov	r2,zero
  8023d4:	003f4e06 	br	802110 <__alt_data_end+0xff802110>

008023d8 <__divsf3>:
  8023d8:	defff504 	addi	sp,sp,-44
  8023dc:	200cd5fa 	srli	r6,r4,23
  8023e0:	dcc00415 	stw	r19,16(sp)
  8023e4:	2026d7fa 	srli	r19,r4,31
  8023e8:	00c02034 	movhi	r3,128
  8023ec:	dd800715 	stw	r22,28(sp)
  8023f0:	dd000515 	stw	r20,20(sp)
  8023f4:	dc800315 	stw	r18,12(sp)
  8023f8:	18ffffc4 	addi	r3,r3,-1
  8023fc:	dfc00a15 	stw	ra,40(sp)
  802400:	df000915 	stw	fp,36(sp)
  802404:	ddc00815 	stw	r23,32(sp)
  802408:	dd400615 	stw	r21,24(sp)
  80240c:	dc400215 	stw	r17,8(sp)
  802410:	dc000115 	stw	r16,4(sp)
  802414:	35003fcc 	andi	r20,r6,255
  802418:	1924703a 	and	r18,r3,r4
  80241c:	9d803fcc 	andi	r22,r19,255
  802420:	a0005226 	beq	r20,zero,80256c <__divsf3+0x194>
  802424:	00803fc4 	movi	r2,255
  802428:	a0802e26 	beq	r20,r2,8024e4 <__divsf3+0x10c>
  80242c:	91002034 	orhi	r4,r18,128
  802430:	202490fa 	slli	r18,r4,3
  802434:	a53fe044 	addi	r20,r20,-127
  802438:	0021883a 	mov	r16,zero
  80243c:	002f883a 	mov	r23,zero
  802440:	280cd5fa 	srli	r6,r5,23
  802444:	282ad7fa 	srli	r21,r5,31
  802448:	00c02034 	movhi	r3,128
  80244c:	18ffffc4 	addi	r3,r3,-1
  802450:	31803fcc 	andi	r6,r6,255
  802454:	1962703a 	and	r17,r3,r5
  802458:	af003fcc 	andi	fp,r21,255
  80245c:	30004a26 	beq	r6,zero,802588 <__divsf3+0x1b0>
  802460:	00803fc4 	movi	r2,255
  802464:	30804526 	beq	r6,r2,80257c <__divsf3+0x1a4>
  802468:	89402034 	orhi	r5,r17,128
  80246c:	282290fa 	slli	r17,r5,3
  802470:	31bfe044 	addi	r6,r6,-127
  802474:	000b883a 	mov	r5,zero
  802478:	2c20b03a 	or	r16,r5,r16
  80247c:	802090ba 	slli	r16,r16,2
  802480:	00802034 	movhi	r2,128
  802484:	10892904 	addi	r2,r2,9380
  802488:	80a1883a 	add	r16,r16,r2
  80248c:	81000017 	ldw	r4,0(r16)
  802490:	9d46f03a 	xor	r3,r19,r21
  802494:	180f883a 	mov	r7,r3
  802498:	18803fcc 	andi	r2,r3,255
  80249c:	a18dc83a 	sub	r6,r20,r6
  8024a0:	2000683a 	jmp	r4
  8024a4:	00802688 	cmpgei	r2,zero,154
  8024a8:	0080250c 	andi	r2,zero,148
  8024ac:	0080267c 	xorhi	r2,zero,153
  8024b0:	008024f8 	rdprs	r2,zero,147
  8024b4:	0080267c 	xorhi	r2,zero,153
  8024b8:	00802654 	movui	r2,153
  8024bc:	0080267c 	xorhi	r2,zero,153
  8024c0:	008024f8 	rdprs	r2,zero,147
  8024c4:	0080250c 	andi	r2,zero,148
  8024c8:	0080250c 	andi	r2,zero,148
  8024cc:	00802654 	movui	r2,153
  8024d0:	008024f8 	rdprs	r2,zero,147
  8024d4:	00802768 	cmpgeui	r2,zero,157
  8024d8:	00802768 	cmpgeui	r2,zero,157
  8024dc:	00802768 	cmpgeui	r2,zero,157
  8024e0:	0080271c 	xori	r2,zero,156
  8024e4:	9000581e 	bne	r18,zero,802648 <__divsf3+0x270>
  8024e8:	04000204 	movi	r16,8
  8024ec:	05c00084 	movi	r23,2
  8024f0:	003fd306 	br	802440 <__alt_data_end+0xff802440>
  8024f4:	0023883a 	mov	r17,zero
  8024f8:	e02d883a 	mov	r22,fp
  8024fc:	282f883a 	mov	r23,r5
  802500:	00800084 	movi	r2,2
  802504:	b8808f1e 	bne	r23,r2,802744 <__divsf3+0x36c>
  802508:	b005883a 	mov	r2,r22
  80250c:	11c0004c 	andi	r7,r2,1
  802510:	013fffc4 	movi	r4,-1
  802514:	000d883a 	mov	r6,zero
  802518:	21003fcc 	andi	r4,r4,255
  80251c:	200895fa 	slli	r4,r4,23
  802520:	38803fcc 	andi	r2,r7,255
  802524:	00c02034 	movhi	r3,128
  802528:	100497fa 	slli	r2,r2,31
  80252c:	18ffffc4 	addi	r3,r3,-1
  802530:	30c6703a 	and	r3,r6,r3
  802534:	1906b03a 	or	r3,r3,r4
  802538:	1884b03a 	or	r2,r3,r2
  80253c:	dfc00a17 	ldw	ra,40(sp)
  802540:	df000917 	ldw	fp,36(sp)
  802544:	ddc00817 	ldw	r23,32(sp)
  802548:	dd800717 	ldw	r22,28(sp)
  80254c:	dd400617 	ldw	r21,24(sp)
  802550:	dd000517 	ldw	r20,20(sp)
  802554:	dcc00417 	ldw	r19,16(sp)
  802558:	dc800317 	ldw	r18,12(sp)
  80255c:	dc400217 	ldw	r17,8(sp)
  802560:	dc000117 	ldw	r16,4(sp)
  802564:	dec00b04 	addi	sp,sp,44
  802568:	f800283a 	ret
  80256c:	90002b1e 	bne	r18,zero,80261c <__divsf3+0x244>
  802570:	04000104 	movi	r16,4
  802574:	05c00044 	movi	r23,1
  802578:	003fb106 	br	802440 <__alt_data_end+0xff802440>
  80257c:	8800251e 	bne	r17,zero,802614 <__divsf3+0x23c>
  802580:	01400084 	movi	r5,2
  802584:	00000206 	br	802590 <__divsf3+0x1b8>
  802588:	88001a1e 	bne	r17,zero,8025f4 <__divsf3+0x21c>
  80258c:	01400044 	movi	r5,1
  802590:	8160b03a 	or	r16,r16,r5
  802594:	802090ba 	slli	r16,r16,2
  802598:	00c02034 	movhi	r3,128
  80259c:	18c96d04 	addi	r3,r3,9652
  8025a0:	80e1883a 	add	r16,r16,r3
  8025a4:	80c00017 	ldw	r3,0(r16)
  8025a8:	9d44f03a 	xor	r2,r19,r21
  8025ac:	a18dc83a 	sub	r6,r20,r6
  8025b0:	1800683a 	jmp	r3
  8025b4:	0080250c 	andi	r2,zero,148
  8025b8:	0080250c 	andi	r2,zero,148
  8025bc:	00802758 	cmpnei	r2,zero,157
  8025c0:	008024f4 	movhi	r2,147
  8025c4:	00802758 	cmpnei	r2,zero,157
  8025c8:	00802654 	movui	r2,153
  8025cc:	00802758 	cmpnei	r2,zero,157
  8025d0:	008024f4 	movhi	r2,147
  8025d4:	0080250c 	andi	r2,zero,148
  8025d8:	0080250c 	andi	r2,zero,148
  8025dc:	00802654 	movui	r2,153
  8025e0:	008024f4 	movhi	r2,147
  8025e4:	00802768 	cmpgeui	r2,zero,157
  8025e8:	00802768 	cmpgeui	r2,zero,157
  8025ec:	00802768 	cmpgeui	r2,zero,157
  8025f0:	00802780 	call	80278 <__alt_mem_sdram-0x77fd88>
  8025f4:	8809883a 	mov	r4,r17
  8025f8:	080486c0 	call	80486c <__clzsi2>
  8025fc:	10fffec4 	addi	r3,r2,-5
  802600:	10801d84 	addi	r2,r2,118
  802604:	88e2983a 	sll	r17,r17,r3
  802608:	008dc83a 	sub	r6,zero,r2
  80260c:	000b883a 	mov	r5,zero
  802610:	003f9906 	br	802478 <__alt_data_end+0xff802478>
  802614:	014000c4 	movi	r5,3
  802618:	003f9706 	br	802478 <__alt_data_end+0xff802478>
  80261c:	9009883a 	mov	r4,r18
  802620:	d9400015 	stw	r5,0(sp)
  802624:	080486c0 	call	80486c <__clzsi2>
  802628:	10fffec4 	addi	r3,r2,-5
  80262c:	11801d84 	addi	r6,r2,118
  802630:	90e4983a 	sll	r18,r18,r3
  802634:	01a9c83a 	sub	r20,zero,r6
  802638:	0021883a 	mov	r16,zero
  80263c:	002f883a 	mov	r23,zero
  802640:	d9400017 	ldw	r5,0(sp)
  802644:	003f7e06 	br	802440 <__alt_data_end+0xff802440>
  802648:	04000304 	movi	r16,12
  80264c:	05c000c4 	movi	r23,3
  802650:	003f7b06 	br	802440 <__alt_data_end+0xff802440>
  802654:	01802034 	movhi	r6,128
  802658:	000f883a 	mov	r7,zero
  80265c:	31bfffc4 	addi	r6,r6,-1
  802660:	013fffc4 	movi	r4,-1
  802664:	003fac06 	br	802518 <__alt_data_end+0xff802518>
  802668:	01400044 	movi	r5,1
  80266c:	2909c83a 	sub	r4,r5,r4
  802670:	00c006c4 	movi	r3,27
  802674:	19004b0e 	bge	r3,r4,8027a4 <__divsf3+0x3cc>
  802678:	114e703a 	and	r7,r2,r5
  80267c:	0009883a 	mov	r4,zero
  802680:	000d883a 	mov	r6,zero
  802684:	003fa406 	br	802518 <__alt_data_end+0xff802518>
  802688:	9006917a 	slli	r3,r18,5
  80268c:	8822917a 	slli	r17,r17,5
  802690:	1c40372e 	bgeu	r3,r17,802770 <__divsf3+0x398>
  802694:	31bfffc4 	addi	r6,r6,-1
  802698:	010006c4 	movi	r4,27
  80269c:	000b883a 	mov	r5,zero
  8026a0:	180f883a 	mov	r7,r3
  8026a4:	294b883a 	add	r5,r5,r5
  8026a8:	18c7883a 	add	r3,r3,r3
  8026ac:	38000116 	blt	r7,zero,8026b4 <__divsf3+0x2dc>
  8026b0:	1c400236 	bltu	r3,r17,8026bc <__divsf3+0x2e4>
  8026b4:	1c47c83a 	sub	r3,r3,r17
  8026b8:	29400054 	ori	r5,r5,1
  8026bc:	213fffc4 	addi	r4,r4,-1
  8026c0:	203ff71e 	bne	r4,zero,8026a0 <__alt_data_end+0xff8026a0>
  8026c4:	1806c03a 	cmpne	r3,r3,zero
  8026c8:	1962b03a 	or	r17,r3,r5
  8026cc:	31001fc4 	addi	r4,r6,127
  8026d0:	013fe50e 	bge	zero,r4,802668 <__alt_data_end+0xff802668>
  8026d4:	88c001cc 	andi	r3,r17,7
  8026d8:	18000426 	beq	r3,zero,8026ec <__divsf3+0x314>
  8026dc:	88c003cc 	andi	r3,r17,15
  8026e0:	01400104 	movi	r5,4
  8026e4:	19400126 	beq	r3,r5,8026ec <__divsf3+0x314>
  8026e8:	8963883a 	add	r17,r17,r5
  8026ec:	88c2002c 	andhi	r3,r17,2048
  8026f0:	18000426 	beq	r3,zero,802704 <__divsf3+0x32c>
  8026f4:	00fe0034 	movhi	r3,63488
  8026f8:	18ffffc4 	addi	r3,r3,-1
  8026fc:	31002004 	addi	r4,r6,128
  802700:	88e2703a 	and	r17,r17,r3
  802704:	00c03f84 	movi	r3,254
  802708:	193f8016 	blt	r3,r4,80250c <__alt_data_end+0xff80250c>
  80270c:	880c91ba 	slli	r6,r17,6
  802710:	11c0004c 	andi	r7,r2,1
  802714:	300cd27a 	srli	r6,r6,9
  802718:	003f7f06 	br	802518 <__alt_data_end+0xff802518>
  80271c:	9080102c 	andhi	r2,r18,64
  802720:	10000226 	beq	r2,zero,80272c <__divsf3+0x354>
  802724:	8880102c 	andhi	r2,r17,64
  802728:	10001826 	beq	r2,zero,80278c <__divsf3+0x3b4>
  80272c:	00802034 	movhi	r2,128
  802730:	91801034 	orhi	r6,r18,64
  802734:	10bfffc4 	addi	r2,r2,-1
  802738:	980f883a 	mov	r7,r19
  80273c:	308c703a 	and	r6,r6,r2
  802740:	003fc706 	br	802660 <__alt_data_end+0xff802660>
  802744:	008000c4 	movi	r2,3
  802748:	b8802d26 	beq	r23,r2,802800 <__divsf3+0x428>
  80274c:	00c00044 	movi	r3,1
  802750:	b005883a 	mov	r2,r22
  802754:	b8ffdd1e 	bne	r23,r3,8026cc <__alt_data_end+0xff8026cc>
  802758:	11c0004c 	andi	r7,r2,1
  80275c:	0009883a 	mov	r4,zero
  802760:	000d883a 	mov	r6,zero
  802764:	003f6c06 	br	802518 <__alt_data_end+0xff802518>
  802768:	9023883a 	mov	r17,r18
  80276c:	003f6406 	br	802500 <__alt_data_end+0xff802500>
  802770:	1c47c83a 	sub	r3,r3,r17
  802774:	01000684 	movi	r4,26
  802778:	01400044 	movi	r5,1
  80277c:	003fc806 	br	8026a0 <__alt_data_end+0xff8026a0>
  802780:	9080102c 	andhi	r2,r18,64
  802784:	103fe926 	beq	r2,zero,80272c <__alt_data_end+0xff80272c>
  802788:	0023883a 	mov	r17,zero
  80278c:	00802034 	movhi	r2,128
  802790:	89801034 	orhi	r6,r17,64
  802794:	10bfffc4 	addi	r2,r2,-1
  802798:	a80f883a 	mov	r7,r21
  80279c:	308c703a 	and	r6,r6,r2
  8027a0:	003faf06 	br	802660 <__alt_data_end+0xff802660>
  8027a4:	01c00804 	movi	r7,32
  8027a8:	390fc83a 	sub	r7,r7,r4
  8027ac:	89ce983a 	sll	r7,r17,r7
  8027b0:	890ad83a 	srl	r5,r17,r4
  8027b4:	380ec03a 	cmpne	r7,r7,zero
  8027b8:	29cab03a 	or	r5,r5,r7
  8027bc:	28c001cc 	andi	r3,r5,7
  8027c0:	18000426 	beq	r3,zero,8027d4 <__divsf3+0x3fc>
  8027c4:	28c003cc 	andi	r3,r5,15
  8027c8:	01000104 	movi	r4,4
  8027cc:	19000126 	beq	r3,r4,8027d4 <__divsf3+0x3fc>
  8027d0:	290b883a 	add	r5,r5,r4
  8027d4:	28c1002c 	andhi	r3,r5,1024
  8027d8:	18000426 	beq	r3,zero,8027ec <__divsf3+0x414>
  8027dc:	11c0004c 	andi	r7,r2,1
  8027e0:	01000044 	movi	r4,1
  8027e4:	000d883a 	mov	r6,zero
  8027e8:	003f4b06 	br	802518 <__alt_data_end+0xff802518>
  8027ec:	280a91ba 	slli	r5,r5,6
  8027f0:	11c0004c 	andi	r7,r2,1
  8027f4:	0009883a 	mov	r4,zero
  8027f8:	280cd27a 	srli	r6,r5,9
  8027fc:	003f4606 	br	802518 <__alt_data_end+0xff802518>
  802800:	00802034 	movhi	r2,128
  802804:	89801034 	orhi	r6,r17,64
  802808:	10bfffc4 	addi	r2,r2,-1
  80280c:	b00f883a 	mov	r7,r22
  802810:	308c703a 	and	r6,r6,r2
  802814:	003f9206 	br	802660 <__alt_data_end+0xff802660>

00802818 <__eqsf2>:
  802818:	2006d5fa 	srli	r3,r4,23
  80281c:	280cd5fa 	srli	r6,r5,23
  802820:	01c02034 	movhi	r7,128
  802824:	39ffffc4 	addi	r7,r7,-1
  802828:	18c03fcc 	andi	r3,r3,255
  80282c:	02003fc4 	movi	r8,255
  802830:	3904703a 	and	r2,r7,r4
  802834:	31803fcc 	andi	r6,r6,255
  802838:	394e703a 	and	r7,r7,r5
  80283c:	2008d7fa 	srli	r4,r4,31
  802840:	280ad7fa 	srli	r5,r5,31
  802844:	1a000d26 	beq	r3,r8,80287c <__eqsf2+0x64>
  802848:	02003fc4 	movi	r8,255
  80284c:	32000826 	beq	r6,r8,802870 <__eqsf2+0x58>
  802850:	19800226 	beq	r3,r6,80285c <__eqsf2+0x44>
  802854:	00800044 	movi	r2,1
  802858:	f800283a 	ret
  80285c:	11fffd1e 	bne	r2,r7,802854 <__alt_data_end+0xff802854>
  802860:	21400926 	beq	r4,r5,802888 <__eqsf2+0x70>
  802864:	183ffb1e 	bne	r3,zero,802854 <__alt_data_end+0xff802854>
  802868:	1004c03a 	cmpne	r2,r2,zero
  80286c:	f800283a 	ret
  802870:	383ff726 	beq	r7,zero,802850 <__alt_data_end+0xff802850>
  802874:	00800044 	movi	r2,1
  802878:	f800283a 	ret
  80287c:	103ff226 	beq	r2,zero,802848 <__alt_data_end+0xff802848>
  802880:	00800044 	movi	r2,1
  802884:	f800283a 	ret
  802888:	0005883a 	mov	r2,zero
  80288c:	f800283a 	ret

00802890 <__gesf2>:
  802890:	2004d5fa 	srli	r2,r4,23
  802894:	2806d5fa 	srli	r3,r5,23
  802898:	01802034 	movhi	r6,128
  80289c:	31bfffc4 	addi	r6,r6,-1
  8028a0:	10803fcc 	andi	r2,r2,255
  8028a4:	01c03fc4 	movi	r7,255
  8028a8:	3110703a 	and	r8,r6,r4
  8028ac:	18c03fcc 	andi	r3,r3,255
  8028b0:	314c703a 	and	r6,r6,r5
  8028b4:	2008d7fa 	srli	r4,r4,31
  8028b8:	280ad7fa 	srli	r5,r5,31
  8028bc:	11c01926 	beq	r2,r7,802924 <__gesf2+0x94>
  8028c0:	01c03fc4 	movi	r7,255
  8028c4:	19c00f26 	beq	r3,r7,802904 <__gesf2+0x74>
  8028c8:	1000061e 	bne	r2,zero,8028e4 <__gesf2+0x54>
  8028cc:	400f003a 	cmpeq	r7,r8,zero
  8028d0:	1800071e 	bne	r3,zero,8028f0 <__gesf2+0x60>
  8028d4:	3000061e 	bne	r6,zero,8028f0 <__gesf2+0x60>
  8028d8:	0005883a 	mov	r2,zero
  8028dc:	40000e1e 	bne	r8,zero,802918 <__gesf2+0x88>
  8028e0:	f800283a 	ret
  8028e4:	18000a1e 	bne	r3,zero,802910 <__gesf2+0x80>
  8028e8:	30000b26 	beq	r6,zero,802918 <__gesf2+0x88>
  8028ec:	000f883a 	mov	r7,zero
  8028f0:	29403fcc 	andi	r5,r5,255
  8028f4:	38000726 	beq	r7,zero,802914 <__gesf2+0x84>
  8028f8:	28000826 	beq	r5,zero,80291c <__gesf2+0x8c>
  8028fc:	00800044 	movi	r2,1
  802900:	f800283a 	ret
  802904:	303ff026 	beq	r6,zero,8028c8 <__alt_data_end+0xff8028c8>
  802908:	00bfff84 	movi	r2,-2
  80290c:	f800283a 	ret
  802910:	29403fcc 	andi	r5,r5,255
  802914:	21400526 	beq	r4,r5,80292c <__gesf2+0x9c>
  802918:	203ff826 	beq	r4,zero,8028fc <__alt_data_end+0xff8028fc>
  80291c:	00bfffc4 	movi	r2,-1
  802920:	f800283a 	ret
  802924:	403fe626 	beq	r8,zero,8028c0 <__alt_data_end+0xff8028c0>
  802928:	003ff706 	br	802908 <__alt_data_end+0xff802908>
  80292c:	18bffa16 	blt	r3,r2,802918 <__alt_data_end+0xff802918>
  802930:	10c00216 	blt	r2,r3,80293c <__gesf2+0xac>
  802934:	323ff836 	bltu	r6,r8,802918 <__alt_data_end+0xff802918>
  802938:	4180022e 	bgeu	r8,r6,802944 <__gesf2+0xb4>
  80293c:	203fef1e 	bne	r4,zero,8028fc <__alt_data_end+0xff8028fc>
  802940:	003ff606 	br	80291c <__alt_data_end+0xff80291c>
  802944:	0005883a 	mov	r2,zero
  802948:	f800283a 	ret

0080294c <__mulsf3>:
  80294c:	defff504 	addi	sp,sp,-44
  802950:	dc000115 	stw	r16,4(sp)
  802954:	2020d5fa 	srli	r16,r4,23
  802958:	dd400615 	stw	r21,24(sp)
  80295c:	202ad7fa 	srli	r21,r4,31
  802960:	dc800315 	stw	r18,12(sp)
  802964:	04802034 	movhi	r18,128
  802968:	df000915 	stw	fp,36(sp)
  80296c:	dd000515 	stw	r20,20(sp)
  802970:	94bfffc4 	addi	r18,r18,-1
  802974:	dfc00a15 	stw	ra,40(sp)
  802978:	ddc00815 	stw	r23,32(sp)
  80297c:	dd800715 	stw	r22,28(sp)
  802980:	dcc00415 	stw	r19,16(sp)
  802984:	dc400215 	stw	r17,8(sp)
  802988:	84003fcc 	andi	r16,r16,255
  80298c:	9124703a 	and	r18,r18,r4
  802990:	a829883a 	mov	r20,r21
  802994:	af003fcc 	andi	fp,r21,255
  802998:	80005426 	beq	r16,zero,802aec <__mulsf3+0x1a0>
  80299c:	00803fc4 	movi	r2,255
  8029a0:	80802f26 	beq	r16,r2,802a60 <__mulsf3+0x114>
  8029a4:	91002034 	orhi	r4,r18,128
  8029a8:	202490fa 	slli	r18,r4,3
  8029ac:	843fe044 	addi	r16,r16,-127
  8029b0:	0023883a 	mov	r17,zero
  8029b4:	002f883a 	mov	r23,zero
  8029b8:	2804d5fa 	srli	r2,r5,23
  8029bc:	282cd7fa 	srli	r22,r5,31
  8029c0:	01002034 	movhi	r4,128
  8029c4:	213fffc4 	addi	r4,r4,-1
  8029c8:	10803fcc 	andi	r2,r2,255
  8029cc:	2166703a 	and	r19,r4,r5
  8029d0:	b1803fcc 	andi	r6,r22,255
  8029d4:	10004c26 	beq	r2,zero,802b08 <__mulsf3+0x1bc>
  8029d8:	00c03fc4 	movi	r3,255
  8029dc:	10c04726 	beq	r2,r3,802afc <__mulsf3+0x1b0>
  8029e0:	99002034 	orhi	r4,r19,128
  8029e4:	202690fa 	slli	r19,r4,3
  8029e8:	10bfe044 	addi	r2,r2,-127
  8029ec:	0007883a 	mov	r3,zero
  8029f0:	80a1883a 	add	r16,r16,r2
  8029f4:	010003c4 	movi	r4,15
  8029f8:	1c44b03a 	or	r2,r3,r17
  8029fc:	b56af03a 	xor	r21,r22,r21
  802a00:	81c00044 	addi	r7,r16,1
  802a04:	20806b36 	bltu	r4,r2,802bb4 <__mulsf3+0x268>
  802a08:	100490ba 	slli	r2,r2,2
  802a0c:	01002034 	movhi	r4,128
  802a10:	210a8804 	addi	r4,r4,10784
  802a14:	1105883a 	add	r2,r2,r4
  802a18:	10800017 	ldw	r2,0(r2)
  802a1c:	1000683a 	jmp	r2
  802a20:	00802bb4 	movhi	r2,174
  802a24:	00802a74 	movhi	r2,169
  802a28:	00802a74 	movhi	r2,169
  802a2c:	00802a70 	cmpltui	r2,zero,169
  802a30:	00802b98 	cmpnei	r2,zero,174
  802a34:	00802b98 	cmpnei	r2,zero,174
  802a38:	00802b84 	movi	r2,174
  802a3c:	00802a70 	cmpltui	r2,zero,169
  802a40:	00802b98 	cmpnei	r2,zero,174
  802a44:	00802b84 	movi	r2,174
  802a48:	00802b98 	cmpnei	r2,zero,174
  802a4c:	00802a70 	cmpltui	r2,zero,169
  802a50:	00802ba4 	muli	r2,zero,174
  802a54:	00802ba4 	muli	r2,zero,174
  802a58:	00802ba4 	muli	r2,zero,174
  802a5c:	00802cb4 	movhi	r2,178
  802a60:	90003b1e 	bne	r18,zero,802b50 <__mulsf3+0x204>
  802a64:	04400204 	movi	r17,8
  802a68:	05c00084 	movi	r23,2
  802a6c:	003fd206 	br	8029b8 <__alt_data_end+0xff8029b8>
  802a70:	302b883a 	mov	r21,r6
  802a74:	00800084 	movi	r2,2
  802a78:	18802626 	beq	r3,r2,802b14 <__mulsf3+0x1c8>
  802a7c:	008000c4 	movi	r2,3
  802a80:	1880b826 	beq	r3,r2,802d64 <__mulsf3+0x418>
  802a84:	00800044 	movi	r2,1
  802a88:	1880af1e 	bne	r3,r2,802d48 <__mulsf3+0x3fc>
  802a8c:	a829883a 	mov	r20,r21
  802a90:	0007883a 	mov	r3,zero
  802a94:	0009883a 	mov	r4,zero
  802a98:	18803fcc 	andi	r2,r3,255
  802a9c:	100695fa 	slli	r3,r2,23
  802aa0:	a0803fcc 	andi	r2,r20,255
  802aa4:	100a97fa 	slli	r5,r2,31
  802aa8:	00802034 	movhi	r2,128
  802aac:	10bfffc4 	addi	r2,r2,-1
  802ab0:	2084703a 	and	r2,r4,r2
  802ab4:	10c4b03a 	or	r2,r2,r3
  802ab8:	1144b03a 	or	r2,r2,r5
  802abc:	dfc00a17 	ldw	ra,40(sp)
  802ac0:	df000917 	ldw	fp,36(sp)
  802ac4:	ddc00817 	ldw	r23,32(sp)
  802ac8:	dd800717 	ldw	r22,28(sp)
  802acc:	dd400617 	ldw	r21,24(sp)
  802ad0:	dd000517 	ldw	r20,20(sp)
  802ad4:	dcc00417 	ldw	r19,16(sp)
  802ad8:	dc800317 	ldw	r18,12(sp)
  802adc:	dc400217 	ldw	r17,8(sp)
  802ae0:	dc000117 	ldw	r16,4(sp)
  802ae4:	dec00b04 	addi	sp,sp,44
  802ae8:	f800283a 	ret
  802aec:	90000d1e 	bne	r18,zero,802b24 <__mulsf3+0x1d8>
  802af0:	04400104 	movi	r17,4
  802af4:	05c00044 	movi	r23,1
  802af8:	003faf06 	br	8029b8 <__alt_data_end+0xff8029b8>
  802afc:	9806c03a 	cmpne	r3,r19,zero
  802b00:	18c00084 	addi	r3,r3,2
  802b04:	003fba06 	br	8029f0 <__alt_data_end+0xff8029f0>
  802b08:	9800141e 	bne	r19,zero,802b5c <__mulsf3+0x210>
  802b0c:	00c00044 	movi	r3,1
  802b10:	003fb706 	br	8029f0 <__alt_data_end+0xff8029f0>
  802b14:	a829883a 	mov	r20,r21
  802b18:	00ffffc4 	movi	r3,-1
  802b1c:	0009883a 	mov	r4,zero
  802b20:	003fdd06 	br	802a98 <__alt_data_end+0xff802a98>
  802b24:	9009883a 	mov	r4,r18
  802b28:	d9400015 	stw	r5,0(sp)
  802b2c:	080486c0 	call	80486c <__clzsi2>
  802b30:	10fffec4 	addi	r3,r2,-5
  802b34:	10801d84 	addi	r2,r2,118
  802b38:	90e4983a 	sll	r18,r18,r3
  802b3c:	00a1c83a 	sub	r16,zero,r2
  802b40:	0023883a 	mov	r17,zero
  802b44:	002f883a 	mov	r23,zero
  802b48:	d9400017 	ldw	r5,0(sp)
  802b4c:	003f9a06 	br	8029b8 <__alt_data_end+0xff8029b8>
  802b50:	04400304 	movi	r17,12
  802b54:	05c000c4 	movi	r23,3
  802b58:	003f9706 	br	8029b8 <__alt_data_end+0xff8029b8>
  802b5c:	9809883a 	mov	r4,r19
  802b60:	d9800015 	stw	r6,0(sp)
  802b64:	080486c0 	call	80486c <__clzsi2>
  802b68:	10fffec4 	addi	r3,r2,-5
  802b6c:	10801d84 	addi	r2,r2,118
  802b70:	98e6983a 	sll	r19,r19,r3
  802b74:	0085c83a 	sub	r2,zero,r2
  802b78:	0007883a 	mov	r3,zero
  802b7c:	d9800017 	ldw	r6,0(sp)
  802b80:	003f9b06 	br	8029f0 <__alt_data_end+0xff8029f0>
  802b84:	01002034 	movhi	r4,128
  802b88:	0029883a 	mov	r20,zero
  802b8c:	213fffc4 	addi	r4,r4,-1
  802b90:	00ffffc4 	movi	r3,-1
  802b94:	003fc006 	br	802a98 <__alt_data_end+0xff802a98>
  802b98:	9027883a 	mov	r19,r18
  802b9c:	b807883a 	mov	r3,r23
  802ba0:	003fb406 	br	802a74 <__alt_data_end+0xff802a74>
  802ba4:	9027883a 	mov	r19,r18
  802ba8:	e02b883a 	mov	r21,fp
  802bac:	b807883a 	mov	r3,r23
  802bb0:	003fb006 	br	802a74 <__alt_data_end+0xff802a74>
  802bb4:	9028d43a 	srli	r20,r18,16
  802bb8:	982cd43a 	srli	r22,r19,16
  802bbc:	94bfffcc 	andi	r18,r18,65535
  802bc0:	9cffffcc 	andi	r19,r19,65535
  802bc4:	980b883a 	mov	r5,r19
  802bc8:	9009883a 	mov	r4,r18
  802bcc:	d9c00015 	stw	r7,0(sp)
  802bd0:	08048d00 	call	8048d0 <__mulsi3>
  802bd4:	a00b883a 	mov	r5,r20
  802bd8:	9809883a 	mov	r4,r19
  802bdc:	1023883a 	mov	r17,r2
  802be0:	08048d00 	call	8048d0 <__mulsi3>
  802be4:	a009883a 	mov	r4,r20
  802be8:	b00b883a 	mov	r5,r22
  802bec:	1027883a 	mov	r19,r2
  802bf0:	08048d00 	call	8048d0 <__mulsi3>
  802bf4:	b00b883a 	mov	r5,r22
  802bf8:	9009883a 	mov	r4,r18
  802bfc:	1029883a 	mov	r20,r2
  802c00:	08048d00 	call	8048d0 <__mulsi3>
  802c04:	8806d43a 	srli	r3,r17,16
  802c08:	14c5883a 	add	r2,r2,r19
  802c0c:	d9c00017 	ldw	r7,0(sp)
  802c10:	1885883a 	add	r2,r3,r2
  802c14:	14c0022e 	bgeu	r2,r19,802c20 <__mulsf3+0x2d4>
  802c18:	00c00074 	movhi	r3,1
  802c1c:	a0e9883a 	add	r20,r20,r3
  802c20:	1026943a 	slli	r19,r2,16
  802c24:	8c7fffcc 	andi	r17,r17,65535
  802c28:	1004d43a 	srli	r2,r2,16
  802c2c:	9c63883a 	add	r17,r19,r17
  802c30:	882691ba 	slli	r19,r17,6
  802c34:	1505883a 	add	r2,r2,r20
  802c38:	8822d6ba 	srli	r17,r17,26
  802c3c:	100891ba 	slli	r4,r2,6
  802c40:	9826c03a 	cmpne	r19,r19,zero
  802c44:	9c62b03a 	or	r17,r19,r17
  802c48:	8926b03a 	or	r19,r17,r4
  802c4c:	9882002c 	andhi	r2,r19,2048
  802c50:	10000426 	beq	r2,zero,802c64 <__mulsf3+0x318>
  802c54:	9804d07a 	srli	r2,r19,1
  802c58:	9900004c 	andi	r4,r19,1
  802c5c:	3821883a 	mov	r16,r7
  802c60:	1126b03a 	or	r19,r2,r4
  802c64:	80c01fc4 	addi	r3,r16,127
  802c68:	00c0210e 	bge	zero,r3,802cf0 <__mulsf3+0x3a4>
  802c6c:	988001cc 	andi	r2,r19,7
  802c70:	10000426 	beq	r2,zero,802c84 <__mulsf3+0x338>
  802c74:	988003cc 	andi	r2,r19,15
  802c78:	01000104 	movi	r4,4
  802c7c:	11000126 	beq	r2,r4,802c84 <__mulsf3+0x338>
  802c80:	9927883a 	add	r19,r19,r4
  802c84:	9882002c 	andhi	r2,r19,2048
  802c88:	10000426 	beq	r2,zero,802c9c <__mulsf3+0x350>
  802c8c:	00be0034 	movhi	r2,63488
  802c90:	10bfffc4 	addi	r2,r2,-1
  802c94:	80c02004 	addi	r3,r16,128
  802c98:	98a6703a 	and	r19,r19,r2
  802c9c:	00803f84 	movi	r2,254
  802ca0:	10ff9c16 	blt	r2,r3,802b14 <__alt_data_end+0xff802b14>
  802ca4:	980891ba 	slli	r4,r19,6
  802ca8:	a829883a 	mov	r20,r21
  802cac:	2008d27a 	srli	r4,r4,9
  802cb0:	003f7906 	br	802a98 <__alt_data_end+0xff802a98>
  802cb4:	9080102c 	andhi	r2,r18,64
  802cb8:	10000826 	beq	r2,zero,802cdc <__mulsf3+0x390>
  802cbc:	9880102c 	andhi	r2,r19,64
  802cc0:	1000061e 	bne	r2,zero,802cdc <__mulsf3+0x390>
  802cc4:	00802034 	movhi	r2,128
  802cc8:	99001034 	orhi	r4,r19,64
  802ccc:	10bfffc4 	addi	r2,r2,-1
  802cd0:	b029883a 	mov	r20,r22
  802cd4:	2088703a 	and	r4,r4,r2
  802cd8:	003fad06 	br	802b90 <__alt_data_end+0xff802b90>
  802cdc:	00802034 	movhi	r2,128
  802ce0:	91001034 	orhi	r4,r18,64
  802ce4:	10bfffc4 	addi	r2,r2,-1
  802ce8:	2088703a 	and	r4,r4,r2
  802cec:	003fa806 	br	802b90 <__alt_data_end+0xff802b90>
  802cf0:	00800044 	movi	r2,1
  802cf4:	10c7c83a 	sub	r3,r2,r3
  802cf8:	008006c4 	movi	r2,27
  802cfc:	10ff6316 	blt	r2,r3,802a8c <__alt_data_end+0xff802a8c>
  802d00:	00800804 	movi	r2,32
  802d04:	10c5c83a 	sub	r2,r2,r3
  802d08:	9884983a 	sll	r2,r19,r2
  802d0c:	98c6d83a 	srl	r3,r19,r3
  802d10:	1004c03a 	cmpne	r2,r2,zero
  802d14:	1884b03a 	or	r2,r3,r2
  802d18:	10c001cc 	andi	r3,r2,7
  802d1c:	18000426 	beq	r3,zero,802d30 <__mulsf3+0x3e4>
  802d20:	10c003cc 	andi	r3,r2,15
  802d24:	01000104 	movi	r4,4
  802d28:	19000126 	beq	r3,r4,802d30 <__mulsf3+0x3e4>
  802d2c:	1105883a 	add	r2,r2,r4
  802d30:	10c1002c 	andhi	r3,r2,1024
  802d34:	18000626 	beq	r3,zero,802d50 <__mulsf3+0x404>
  802d38:	a829883a 	mov	r20,r21
  802d3c:	00c00044 	movi	r3,1
  802d40:	0009883a 	mov	r4,zero
  802d44:	003f5406 	br	802a98 <__alt_data_end+0xff802a98>
  802d48:	3821883a 	mov	r16,r7
  802d4c:	003fc506 	br	802c64 <__alt_data_end+0xff802c64>
  802d50:	100491ba 	slli	r2,r2,6
  802d54:	a829883a 	mov	r20,r21
  802d58:	0007883a 	mov	r3,zero
  802d5c:	1008d27a 	srli	r4,r2,9
  802d60:	003f4d06 	br	802a98 <__alt_data_end+0xff802a98>
  802d64:	00802034 	movhi	r2,128
  802d68:	99001034 	orhi	r4,r19,64
  802d6c:	10bfffc4 	addi	r2,r2,-1
  802d70:	a829883a 	mov	r20,r21
  802d74:	2088703a 	and	r4,r4,r2
  802d78:	003f8506 	br	802b90 <__alt_data_end+0xff802b90>

00802d7c <__subsf3>:
  802d7c:	defffc04 	addi	sp,sp,-16
  802d80:	280cd5fa 	srli	r6,r5,23
  802d84:	dc000015 	stw	r16,0(sp)
  802d88:	01c02034 	movhi	r7,128
  802d8c:	2020d5fa 	srli	r16,r4,23
  802d90:	39ffffc4 	addi	r7,r7,-1
  802d94:	3906703a 	and	r3,r7,r4
  802d98:	dc400115 	stw	r17,4(sp)
  802d9c:	394e703a 	and	r7,r7,r5
  802da0:	2022d7fa 	srli	r17,r4,31
  802da4:	dfc00315 	stw	ra,12(sp)
  802da8:	dc800215 	stw	r18,8(sp)
  802dac:	31803fcc 	andi	r6,r6,255
  802db0:	01003fc4 	movi	r4,255
  802db4:	84003fcc 	andi	r16,r16,255
  802db8:	180690fa 	slli	r3,r3,3
  802dbc:	2804d7fa 	srli	r2,r5,31
  802dc0:	380e90fa 	slli	r7,r7,3
  802dc4:	31006d26 	beq	r6,r4,802f7c <__subsf3+0x200>
  802dc8:	1080005c 	xori	r2,r2,1
  802dcc:	8189c83a 	sub	r4,r16,r6
  802dd0:	14404f26 	beq	r2,r17,802f10 <__subsf3+0x194>
  802dd4:	0100770e 	bge	zero,r4,802fb4 <__subsf3+0x238>
  802dd8:	30001e1e 	bne	r6,zero,802e54 <__subsf3+0xd8>
  802ddc:	38006a1e 	bne	r7,zero,802f88 <__subsf3+0x20c>
  802de0:	188001cc 	andi	r2,r3,7
  802de4:	10000426 	beq	r2,zero,802df8 <__subsf3+0x7c>
  802de8:	188003cc 	andi	r2,r3,15
  802dec:	01000104 	movi	r4,4
  802df0:	11000126 	beq	r2,r4,802df8 <__subsf3+0x7c>
  802df4:	1907883a 	add	r3,r3,r4
  802df8:	1881002c 	andhi	r2,r3,1024
  802dfc:	10003926 	beq	r2,zero,802ee4 <__subsf3+0x168>
  802e00:	84000044 	addi	r16,r16,1
  802e04:	00803fc4 	movi	r2,255
  802e08:	80807526 	beq	r16,r2,802fe0 <__subsf3+0x264>
  802e0c:	180691ba 	slli	r3,r3,6
  802e10:	8880004c 	andi	r2,r17,1
  802e14:	180ad27a 	srli	r5,r3,9
  802e18:	84003fcc 	andi	r16,r16,255
  802e1c:	800695fa 	slli	r3,r16,23
  802e20:	10803fcc 	andi	r2,r2,255
  802e24:	01002034 	movhi	r4,128
  802e28:	213fffc4 	addi	r4,r4,-1
  802e2c:	100497fa 	slli	r2,r2,31
  802e30:	2920703a 	and	r16,r5,r4
  802e34:	80e0b03a 	or	r16,r16,r3
  802e38:	8084b03a 	or	r2,r16,r2
  802e3c:	dfc00317 	ldw	ra,12(sp)
  802e40:	dc800217 	ldw	r18,8(sp)
  802e44:	dc400117 	ldw	r17,4(sp)
  802e48:	dc000017 	ldw	r16,0(sp)
  802e4c:	dec00404 	addi	sp,sp,16
  802e50:	f800283a 	ret
  802e54:	00803fc4 	movi	r2,255
  802e58:	80bfe126 	beq	r16,r2,802de0 <__alt_data_end+0xff802de0>
  802e5c:	39c10034 	orhi	r7,r7,1024
  802e60:	008006c4 	movi	r2,27
  802e64:	11007416 	blt	r2,r4,803038 <__subsf3+0x2bc>
  802e68:	00800804 	movi	r2,32
  802e6c:	1105c83a 	sub	r2,r2,r4
  802e70:	3884983a 	sll	r2,r7,r2
  802e74:	390ed83a 	srl	r7,r7,r4
  802e78:	1008c03a 	cmpne	r4,r2,zero
  802e7c:	390eb03a 	or	r7,r7,r4
  802e80:	19c7c83a 	sub	r3,r3,r7
  802e84:	1881002c 	andhi	r2,r3,1024
  802e88:	10001426 	beq	r2,zero,802edc <__subsf3+0x160>
  802e8c:	04810034 	movhi	r18,1024
  802e90:	94bfffc4 	addi	r18,r18,-1
  802e94:	1ca4703a 	and	r18,r3,r18
  802e98:	9009883a 	mov	r4,r18
  802e9c:	080486c0 	call	80486c <__clzsi2>
  802ea0:	10bffec4 	addi	r2,r2,-5
  802ea4:	90a4983a 	sll	r18,r18,r2
  802ea8:	14005116 	blt	r2,r16,802ff0 <__subsf3+0x274>
  802eac:	1405c83a 	sub	r2,r2,r16
  802eb0:	10c00044 	addi	r3,r2,1
  802eb4:	00800804 	movi	r2,32
  802eb8:	10c5c83a 	sub	r2,r2,r3
  802ebc:	9084983a 	sll	r2,r18,r2
  802ec0:	90e4d83a 	srl	r18,r18,r3
  802ec4:	0021883a 	mov	r16,zero
  802ec8:	1006c03a 	cmpne	r3,r2,zero
  802ecc:	90c6b03a 	or	r3,r18,r3
  802ed0:	003fc306 	br	802de0 <__alt_data_end+0xff802de0>
  802ed4:	2000e026 	beq	r4,zero,803258 <__subsf3+0x4dc>
  802ed8:	2007883a 	mov	r3,r4
  802edc:	188001cc 	andi	r2,r3,7
  802ee0:	103fc11e 	bne	r2,zero,802de8 <__alt_data_end+0xff802de8>
  802ee4:	180ad0fa 	srli	r5,r3,3
  802ee8:	00c03fc4 	movi	r3,255
  802eec:	8880004c 	andi	r2,r17,1
  802ef0:	80c0031e 	bne	r16,r3,802f00 <__subsf3+0x184>
  802ef4:	28006d26 	beq	r5,zero,8030ac <__subsf3+0x330>
  802ef8:	29401034 	orhi	r5,r5,64
  802efc:	043fffc4 	movi	r16,-1
  802f00:	00c02034 	movhi	r3,128
  802f04:	18ffffc4 	addi	r3,r3,-1
  802f08:	28ca703a 	and	r5,r5,r3
  802f0c:	003fc206 	br	802e18 <__alt_data_end+0xff802e18>
  802f10:	01003c0e 	bge	zero,r4,803004 <__subsf3+0x288>
  802f14:	30002126 	beq	r6,zero,802f9c <__subsf3+0x220>
  802f18:	01403fc4 	movi	r5,255
  802f1c:	817fb026 	beq	r16,r5,802de0 <__alt_data_end+0xff802de0>
  802f20:	39c10034 	orhi	r7,r7,1024
  802f24:	014006c4 	movi	r5,27
  802f28:	29007416 	blt	r5,r4,8030fc <__subsf3+0x380>
  802f2c:	01400804 	movi	r5,32
  802f30:	290bc83a 	sub	r5,r5,r4
  802f34:	394a983a 	sll	r5,r7,r5
  802f38:	390ed83a 	srl	r7,r7,r4
  802f3c:	2808c03a 	cmpne	r4,r5,zero
  802f40:	390eb03a 	or	r7,r7,r4
  802f44:	19c7883a 	add	r3,r3,r7
  802f48:	1901002c 	andhi	r4,r3,1024
  802f4c:	20003826 	beq	r4,zero,803030 <__subsf3+0x2b4>
  802f50:	84000044 	addi	r16,r16,1
  802f54:	01003fc4 	movi	r4,255
  802f58:	81005426 	beq	r16,r4,8030ac <__subsf3+0x330>
  802f5c:	1023883a 	mov	r17,r2
  802f60:	00bf0034 	movhi	r2,64512
  802f64:	10bfffc4 	addi	r2,r2,-1
  802f68:	1900004c 	andi	r4,r3,1
  802f6c:	1886703a 	and	r3,r3,r2
  802f70:	1806d07a 	srli	r3,r3,1
  802f74:	1906b03a 	or	r3,r3,r4
  802f78:	003f9906 	br	802de0 <__alt_data_end+0xff802de0>
  802f7c:	383f9226 	beq	r7,zero,802dc8 <__alt_data_end+0xff802dc8>
  802f80:	10803fcc 	andi	r2,r2,255
  802f84:	003f9106 	br	802dcc <__alt_data_end+0xff802dcc>
  802f88:	213fffc4 	addi	r4,r4,-1
  802f8c:	203fbc26 	beq	r4,zero,802e80 <__alt_data_end+0xff802e80>
  802f90:	00803fc4 	movi	r2,255
  802f94:	80bfb21e 	bne	r16,r2,802e60 <__alt_data_end+0xff802e60>
  802f98:	003f9106 	br	802de0 <__alt_data_end+0xff802de0>
  802f9c:	383f9026 	beq	r7,zero,802de0 <__alt_data_end+0xff802de0>
  802fa0:	213fffc4 	addi	r4,r4,-1
  802fa4:	203fe726 	beq	r4,zero,802f44 <__alt_data_end+0xff802f44>
  802fa8:	01403fc4 	movi	r5,255
  802fac:	817fdd1e 	bne	r16,r5,802f24 <__alt_data_end+0xff802f24>
  802fb0:	003f8b06 	br	802de0 <__alt_data_end+0xff802de0>
  802fb4:	2000221e 	bne	r4,zero,803040 <__subsf3+0x2c4>
  802fb8:	81000044 	addi	r4,r16,1
  802fbc:	21003fcc 	andi	r4,r4,255
  802fc0:	01400044 	movi	r5,1
  802fc4:	2900470e 	bge	r5,r4,8030e4 <__subsf3+0x368>
  802fc8:	19e5c83a 	sub	r18,r3,r7
  802fcc:	9141002c 	andhi	r5,r18,1024
  802fd0:	28002d26 	beq	r5,zero,803088 <__subsf3+0x30c>
  802fd4:	38e5c83a 	sub	r18,r7,r3
  802fd8:	1023883a 	mov	r17,r2
  802fdc:	003fae06 	br	802e98 <__alt_data_end+0xff802e98>
  802fe0:	8880004c 	andi	r2,r17,1
  802fe4:	043fffc4 	movi	r16,-1
  802fe8:	000b883a 	mov	r5,zero
  802fec:	003f8a06 	br	802e18 <__alt_data_end+0xff802e18>
  802ff0:	00ff0034 	movhi	r3,64512
  802ff4:	18ffffc4 	addi	r3,r3,-1
  802ff8:	80a1c83a 	sub	r16,r16,r2
  802ffc:	90c6703a 	and	r3,r18,r3
  803000:	003f7706 	br	802de0 <__alt_data_end+0xff802de0>
  803004:	2000431e 	bne	r4,zero,803114 <__subsf3+0x398>
  803008:	81000044 	addi	r4,r16,1
  80300c:	21803fcc 	andi	r6,r4,255
  803010:	01400044 	movi	r5,1
  803014:	2980280e 	bge	r5,r6,8030b8 <__subsf3+0x33c>
  803018:	01403fc4 	movi	r5,255
  80301c:	21402326 	beq	r4,r5,8030ac <__subsf3+0x330>
  803020:	19c7883a 	add	r3,r3,r7
  803024:	1806d07a 	srli	r3,r3,1
  803028:	2021883a 	mov	r16,r4
  80302c:	003f6c06 	br	802de0 <__alt_data_end+0xff802de0>
  803030:	1023883a 	mov	r17,r2
  803034:	003fa906 	br	802edc <__alt_data_end+0xff802edc>
  803038:	01c00044 	movi	r7,1
  80303c:	003f9006 	br	802e80 <__alt_data_end+0xff802e80>
  803040:	8000151e 	bne	r16,zero,803098 <__subsf3+0x31c>
  803044:	18002f26 	beq	r3,zero,803104 <__subsf3+0x388>
  803048:	0108303a 	nor	r4,zero,r4
  80304c:	20000a26 	beq	r4,zero,803078 <__subsf3+0x2fc>
  803050:	01403fc4 	movi	r5,255
  803054:	31402b26 	beq	r6,r5,803104 <__subsf3+0x388>
  803058:	014006c4 	movi	r5,27
  80305c:	29006e16 	blt	r5,r4,803218 <__subsf3+0x49c>
  803060:	01400804 	movi	r5,32
  803064:	290bc83a 	sub	r5,r5,r4
  803068:	194a983a 	sll	r5,r3,r5
  80306c:	1908d83a 	srl	r4,r3,r4
  803070:	2806c03a 	cmpne	r3,r5,zero
  803074:	20c6b03a 	or	r3,r4,r3
  803078:	38c7c83a 	sub	r3,r7,r3
  80307c:	3021883a 	mov	r16,r6
  803080:	1023883a 	mov	r17,r2
  803084:	003f7f06 	br	802e84 <__alt_data_end+0xff802e84>
  803088:	903f831e 	bne	r18,zero,802e98 <__alt_data_end+0xff802e98>
  80308c:	0005883a 	mov	r2,zero
  803090:	0021883a 	mov	r16,zero
  803094:	003f9a06 	br	802f00 <__alt_data_end+0xff802f00>
  803098:	01403fc4 	movi	r5,255
  80309c:	31401926 	beq	r6,r5,803104 <__subsf3+0x388>
  8030a0:	0109c83a 	sub	r4,zero,r4
  8030a4:	18c10034 	orhi	r3,r3,1024
  8030a8:	003feb06 	br	803058 <__alt_data_end+0xff803058>
  8030ac:	043fffc4 	movi	r16,-1
  8030b0:	000b883a 	mov	r5,zero
  8030b4:	003f5806 	br	802e18 <__alt_data_end+0xff802e18>
  8030b8:	8000481e 	bne	r16,zero,8031dc <__subsf3+0x460>
  8030bc:	18006226 	beq	r3,zero,803248 <__subsf3+0x4cc>
  8030c0:	383f4726 	beq	r7,zero,802de0 <__alt_data_end+0xff802de0>
  8030c4:	19c7883a 	add	r3,r3,r7
  8030c8:	1881002c 	andhi	r2,r3,1024
  8030cc:	103f8326 	beq	r2,zero,802edc <__alt_data_end+0xff802edc>
  8030d0:	00bf0034 	movhi	r2,64512
  8030d4:	10bfffc4 	addi	r2,r2,-1
  8030d8:	2821883a 	mov	r16,r5
  8030dc:	1886703a 	and	r3,r3,r2
  8030e0:	003f3f06 	br	802de0 <__alt_data_end+0xff802de0>
  8030e4:	80001c1e 	bne	r16,zero,803158 <__subsf3+0x3dc>
  8030e8:	1800261e 	bne	r3,zero,803184 <__subsf3+0x408>
  8030ec:	38004c26 	beq	r7,zero,803220 <__subsf3+0x4a4>
  8030f0:	3807883a 	mov	r3,r7
  8030f4:	1023883a 	mov	r17,r2
  8030f8:	003f3906 	br	802de0 <__alt_data_end+0xff802de0>
  8030fc:	01c00044 	movi	r7,1
  803100:	003f9006 	br	802f44 <__alt_data_end+0xff802f44>
  803104:	3807883a 	mov	r3,r7
  803108:	3021883a 	mov	r16,r6
  80310c:	1023883a 	mov	r17,r2
  803110:	003f3306 	br	802de0 <__alt_data_end+0xff802de0>
  803114:	8000161e 	bne	r16,zero,803170 <__subsf3+0x3f4>
  803118:	18002d26 	beq	r3,zero,8031d0 <__subsf3+0x454>
  80311c:	0108303a 	nor	r4,zero,r4
  803120:	20000a26 	beq	r4,zero,80314c <__subsf3+0x3d0>
  803124:	01403fc4 	movi	r5,255
  803128:	31402926 	beq	r6,r5,8031d0 <__subsf3+0x454>
  80312c:	014006c4 	movi	r5,27
  803130:	29004716 	blt	r5,r4,803250 <__subsf3+0x4d4>
  803134:	01400804 	movi	r5,32
  803138:	290bc83a 	sub	r5,r5,r4
  80313c:	194a983a 	sll	r5,r3,r5
  803140:	1908d83a 	srl	r4,r3,r4
  803144:	2806c03a 	cmpne	r3,r5,zero
  803148:	20c6b03a 	or	r3,r4,r3
  80314c:	19c7883a 	add	r3,r3,r7
  803150:	3021883a 	mov	r16,r6
  803154:	003f7c06 	br	802f48 <__alt_data_end+0xff802f48>
  803158:	1800111e 	bne	r3,zero,8031a0 <__subsf3+0x424>
  80315c:	38003326 	beq	r7,zero,80322c <__subsf3+0x4b0>
  803160:	3807883a 	mov	r3,r7
  803164:	1023883a 	mov	r17,r2
  803168:	04003fc4 	movi	r16,255
  80316c:	003f1c06 	br	802de0 <__alt_data_end+0xff802de0>
  803170:	01403fc4 	movi	r5,255
  803174:	31401626 	beq	r6,r5,8031d0 <__subsf3+0x454>
  803178:	0109c83a 	sub	r4,zero,r4
  80317c:	18c10034 	orhi	r3,r3,1024
  803180:	003fea06 	br	80312c <__alt_data_end+0xff80312c>
  803184:	383f1626 	beq	r7,zero,802de0 <__alt_data_end+0xff802de0>
  803188:	19c9c83a 	sub	r4,r3,r7
  80318c:	2141002c 	andhi	r5,r4,1024
  803190:	283f5026 	beq	r5,zero,802ed4 <__alt_data_end+0xff802ed4>
  803194:	38c7c83a 	sub	r3,r7,r3
  803198:	1023883a 	mov	r17,r2
  80319c:	003f1006 	br	802de0 <__alt_data_end+0xff802de0>
  8031a0:	38001b26 	beq	r7,zero,803210 <__subsf3+0x494>
  8031a4:	1806d0fa 	srli	r3,r3,3
  8031a8:	1900102c 	andhi	r4,r3,64
  8031ac:	20000526 	beq	r4,zero,8031c4 <__subsf3+0x448>
  8031b0:	380ed0fa 	srli	r7,r7,3
  8031b4:	3900102c 	andhi	r4,r7,64
  8031b8:	2000021e 	bne	r4,zero,8031c4 <__subsf3+0x448>
  8031bc:	3807883a 	mov	r3,r7
  8031c0:	1023883a 	mov	r17,r2
  8031c4:	180690fa 	slli	r3,r3,3
  8031c8:	04003fc4 	movi	r16,255
  8031cc:	003f0406 	br	802de0 <__alt_data_end+0xff802de0>
  8031d0:	3807883a 	mov	r3,r7
  8031d4:	3021883a 	mov	r16,r6
  8031d8:	003f0106 	br	802de0 <__alt_data_end+0xff802de0>
  8031dc:	18001726 	beq	r3,zero,80323c <__subsf3+0x4c0>
  8031e0:	38000b26 	beq	r7,zero,803210 <__subsf3+0x494>
  8031e4:	1806d0fa 	srli	r3,r3,3
  8031e8:	1900102c 	andhi	r4,r3,64
  8031ec:	20000426 	beq	r4,zero,803200 <__subsf3+0x484>
  8031f0:	380ed0fa 	srli	r7,r7,3
  8031f4:	3900102c 	andhi	r4,r7,64
  8031f8:	2000011e 	bne	r4,zero,803200 <__subsf3+0x484>
  8031fc:	3807883a 	mov	r3,r7
  803200:	180690fa 	slli	r3,r3,3
  803204:	1023883a 	mov	r17,r2
  803208:	04003fc4 	movi	r16,255
  80320c:	003ef406 	br	802de0 <__alt_data_end+0xff802de0>
  803210:	04003fc4 	movi	r16,255
  803214:	003ef206 	br	802de0 <__alt_data_end+0xff802de0>
  803218:	00c00044 	movi	r3,1
  80321c:	003f9606 	br	803078 <__alt_data_end+0xff803078>
  803220:	000b883a 	mov	r5,zero
  803224:	0005883a 	mov	r2,zero
  803228:	003f3506 	br	802f00 <__alt_data_end+0xff802f00>
  80322c:	01402034 	movhi	r5,128
  803230:	297fffc4 	addi	r5,r5,-1
  803234:	0005883a 	mov	r2,zero
  803238:	003f2f06 	br	802ef8 <__alt_data_end+0xff802ef8>
  80323c:	3807883a 	mov	r3,r7
  803240:	04003fc4 	movi	r16,255
  803244:	003ee606 	br	802de0 <__alt_data_end+0xff802de0>
  803248:	3807883a 	mov	r3,r7
  80324c:	003ee406 	br	802de0 <__alt_data_end+0xff802de0>
  803250:	00c00044 	movi	r3,1
  803254:	003fbd06 	br	80314c <__alt_data_end+0xff80314c>
  803258:	0005883a 	mov	r2,zero
  80325c:	003f2806 	br	802f00 <__alt_data_end+0xff802f00>

00803260 <__fixsfsi>:
  803260:	200ad5fa 	srli	r5,r4,23
  803264:	00c02034 	movhi	r3,128
  803268:	18ffffc4 	addi	r3,r3,-1
  80326c:	29403fcc 	andi	r5,r5,255
  803270:	00801f84 	movi	r2,126
  803274:	1906703a 	and	r3,r3,r4
  803278:	2008d7fa 	srli	r4,r4,31
  80327c:	11400e0e 	bge	r2,r5,8032b8 <__fixsfsi+0x58>
  803280:	00802744 	movi	r2,157
  803284:	11400816 	blt	r2,r5,8032a8 <__fixsfsi+0x48>
  803288:	00802544 	movi	r2,149
  80328c:	18c02034 	orhi	r3,r3,128
  803290:	11400b0e 	bge	r2,r5,8032c0 <__fixsfsi+0x60>
  803294:	28bfda84 	addi	r2,r5,-150
  803298:	1884983a 	sll	r2,r3,r2
  80329c:	20000726 	beq	r4,zero,8032bc <__fixsfsi+0x5c>
  8032a0:	0085c83a 	sub	r2,zero,r2
  8032a4:	f800283a 	ret
  8032a8:	00a00034 	movhi	r2,32768
  8032ac:	10bfffc4 	addi	r2,r2,-1
  8032b0:	2085883a 	add	r2,r4,r2
  8032b4:	f800283a 	ret
  8032b8:	0005883a 	mov	r2,zero
  8032bc:	f800283a 	ret
  8032c0:	00802584 	movi	r2,150
  8032c4:	1145c83a 	sub	r2,r2,r5
  8032c8:	1884d83a 	srl	r2,r3,r2
  8032cc:	003ff306 	br	80329c <__alt_data_end+0xff80329c>

008032d0 <__floatsisf>:
  8032d0:	defffd04 	addi	sp,sp,-12
  8032d4:	dfc00215 	stw	ra,8(sp)
  8032d8:	dc400115 	stw	r17,4(sp)
  8032dc:	dc000015 	stw	r16,0(sp)
  8032e0:	20003526 	beq	r4,zero,8033b8 <__floatsisf+0xe8>
  8032e4:	2021883a 	mov	r16,r4
  8032e8:	2022d7fa 	srli	r17,r4,31
  8032ec:	20003616 	blt	r4,zero,8033c8 <__floatsisf+0xf8>
  8032f0:	8009883a 	mov	r4,r16
  8032f4:	080486c0 	call	80486c <__clzsi2>
  8032f8:	00c02784 	movi	r3,158
  8032fc:	1887c83a 	sub	r3,r3,r2
  803300:	01002584 	movi	r4,150
  803304:	20c01416 	blt	r4,r3,803358 <__floatsisf+0x88>
  803308:	20c9c83a 	sub	r4,r4,r3
  80330c:	8120983a 	sll	r16,r16,r4
  803310:	00802034 	movhi	r2,128
  803314:	10bfffc4 	addi	r2,r2,-1
  803318:	8809883a 	mov	r4,r17
  80331c:	80a0703a 	and	r16,r16,r2
  803320:	18803fcc 	andi	r2,r3,255
  803324:	100695fa 	slli	r3,r2,23
  803328:	20803fcc 	andi	r2,r4,255
  80332c:	100897fa 	slli	r4,r2,31
  803330:	00802034 	movhi	r2,128
  803334:	10bfffc4 	addi	r2,r2,-1
  803338:	8084703a 	and	r2,r16,r2
  80333c:	10c4b03a 	or	r2,r2,r3
  803340:	1104b03a 	or	r2,r2,r4
  803344:	dfc00217 	ldw	ra,8(sp)
  803348:	dc400117 	ldw	r17,4(sp)
  80334c:	dc000017 	ldw	r16,0(sp)
  803350:	dec00304 	addi	sp,sp,12
  803354:	f800283a 	ret
  803358:	01002644 	movi	r4,153
  80335c:	20c01c16 	blt	r4,r3,8033d0 <__floatsisf+0x100>
  803360:	20c9c83a 	sub	r4,r4,r3
  803364:	8120983a 	sll	r16,r16,r4
  803368:	013f0034 	movhi	r4,64512
  80336c:	213fffc4 	addi	r4,r4,-1
  803370:	814001cc 	andi	r5,r16,7
  803374:	8108703a 	and	r4,r16,r4
  803378:	28000426 	beq	r5,zero,80338c <__floatsisf+0xbc>
  80337c:	840003cc 	andi	r16,r16,15
  803380:	01400104 	movi	r5,4
  803384:	81400126 	beq	r16,r5,80338c <__floatsisf+0xbc>
  803388:	2149883a 	add	r4,r4,r5
  80338c:	2141002c 	andhi	r5,r4,1024
  803390:	28000526 	beq	r5,zero,8033a8 <__floatsisf+0xd8>
  803394:	00c027c4 	movi	r3,159
  803398:	1887c83a 	sub	r3,r3,r2
  80339c:	00bf0034 	movhi	r2,64512
  8033a0:	10bfffc4 	addi	r2,r2,-1
  8033a4:	2088703a 	and	r4,r4,r2
  8033a8:	202091ba 	slli	r16,r4,6
  8033ac:	8809883a 	mov	r4,r17
  8033b0:	8020d27a 	srli	r16,r16,9
  8033b4:	003fda06 	br	803320 <__alt_data_end+0xff803320>
  8033b8:	0009883a 	mov	r4,zero
  8033bc:	0007883a 	mov	r3,zero
  8033c0:	0021883a 	mov	r16,zero
  8033c4:	003fd606 	br	803320 <__alt_data_end+0xff803320>
  8033c8:	0121c83a 	sub	r16,zero,r4
  8033cc:	003fc806 	br	8032f0 <__alt_data_end+0xff8032f0>
  8033d0:	01002e44 	movi	r4,185
  8033d4:	20c9c83a 	sub	r4,r4,r3
  8033d8:	01400144 	movi	r5,5
  8033dc:	8108983a 	sll	r4,r16,r4
  8033e0:	288bc83a 	sub	r5,r5,r2
  8033e4:	8160d83a 	srl	r16,r16,r5
  8033e8:	2008c03a 	cmpne	r4,r4,zero
  8033ec:	8120b03a 	or	r16,r16,r4
  8033f0:	003fdd06 	br	803368 <__alt_data_end+0xff803368>

008033f4 <__adddf3>:
  8033f4:	02c00434 	movhi	r11,16
  8033f8:	5affffc4 	addi	r11,r11,-1
  8033fc:	2806d7fa 	srli	r3,r5,31
  803400:	2ad4703a 	and	r10,r5,r11
  803404:	3ad2703a 	and	r9,r7,r11
  803408:	3804d53a 	srli	r2,r7,20
  80340c:	3018d77a 	srli	r12,r6,29
  803410:	280ad53a 	srli	r5,r5,20
  803414:	501490fa 	slli	r10,r10,3
  803418:	2010d77a 	srli	r8,r4,29
  80341c:	481290fa 	slli	r9,r9,3
  803420:	380ed7fa 	srli	r7,r7,31
  803424:	defffb04 	addi	sp,sp,-20
  803428:	dc800215 	stw	r18,8(sp)
  80342c:	dc400115 	stw	r17,4(sp)
  803430:	dc000015 	stw	r16,0(sp)
  803434:	dfc00415 	stw	ra,16(sp)
  803438:	dcc00315 	stw	r19,12(sp)
  80343c:	1c803fcc 	andi	r18,r3,255
  803440:	2c01ffcc 	andi	r16,r5,2047
  803444:	5210b03a 	or	r8,r10,r8
  803448:	202290fa 	slli	r17,r4,3
  80344c:	1081ffcc 	andi	r2,r2,2047
  803450:	4b12b03a 	or	r9,r9,r12
  803454:	300c90fa 	slli	r6,r6,3
  803458:	91c07526 	beq	r18,r7,803630 <__adddf3+0x23c>
  80345c:	8087c83a 	sub	r3,r16,r2
  803460:	00c0ab0e 	bge	zero,r3,803710 <__adddf3+0x31c>
  803464:	10002a1e 	bne	r2,zero,803510 <__adddf3+0x11c>
  803468:	4984b03a 	or	r2,r9,r6
  80346c:	1000961e 	bne	r2,zero,8036c8 <__adddf3+0x2d4>
  803470:	888001cc 	andi	r2,r17,7
  803474:	10000726 	beq	r2,zero,803494 <__adddf3+0xa0>
  803478:	888003cc 	andi	r2,r17,15
  80347c:	00c00104 	movi	r3,4
  803480:	10c00426 	beq	r2,r3,803494 <__adddf3+0xa0>
  803484:	88c7883a 	add	r3,r17,r3
  803488:	1c63803a 	cmpltu	r17,r3,r17
  80348c:	4451883a 	add	r8,r8,r17
  803490:	1823883a 	mov	r17,r3
  803494:	4080202c 	andhi	r2,r8,128
  803498:	10005926 	beq	r2,zero,803600 <__adddf3+0x20c>
  80349c:	84000044 	addi	r16,r16,1
  8034a0:	0081ffc4 	movi	r2,2047
  8034a4:	8080ba26 	beq	r16,r2,803790 <__adddf3+0x39c>
  8034a8:	00bfe034 	movhi	r2,65408
  8034ac:	10bfffc4 	addi	r2,r2,-1
  8034b0:	4090703a 	and	r8,r8,r2
  8034b4:	4004977a 	slli	r2,r8,29
  8034b8:	4010927a 	slli	r8,r8,9
  8034bc:	8822d0fa 	srli	r17,r17,3
  8034c0:	8401ffcc 	andi	r16,r16,2047
  8034c4:	4010d33a 	srli	r8,r8,12
  8034c8:	9007883a 	mov	r3,r18
  8034cc:	1444b03a 	or	r2,r2,r17
  8034d0:	8401ffcc 	andi	r16,r16,2047
  8034d4:	8020953a 	slli	r16,r16,20
  8034d8:	18c03fcc 	andi	r3,r3,255
  8034dc:	01000434 	movhi	r4,16
  8034e0:	213fffc4 	addi	r4,r4,-1
  8034e4:	180697fa 	slli	r3,r3,31
  8034e8:	4110703a 	and	r8,r8,r4
  8034ec:	4410b03a 	or	r8,r8,r16
  8034f0:	40c6b03a 	or	r3,r8,r3
  8034f4:	dfc00417 	ldw	ra,16(sp)
  8034f8:	dcc00317 	ldw	r19,12(sp)
  8034fc:	dc800217 	ldw	r18,8(sp)
  803500:	dc400117 	ldw	r17,4(sp)
  803504:	dc000017 	ldw	r16,0(sp)
  803508:	dec00504 	addi	sp,sp,20
  80350c:	f800283a 	ret
  803510:	0081ffc4 	movi	r2,2047
  803514:	80bfd626 	beq	r16,r2,803470 <__alt_data_end+0xff803470>
  803518:	4a402034 	orhi	r9,r9,128
  80351c:	00800e04 	movi	r2,56
  803520:	10c09f16 	blt	r2,r3,8037a0 <__adddf3+0x3ac>
  803524:	008007c4 	movi	r2,31
  803528:	10c0c216 	blt	r2,r3,803834 <__adddf3+0x440>
  80352c:	00800804 	movi	r2,32
  803530:	10c5c83a 	sub	r2,r2,r3
  803534:	488a983a 	sll	r5,r9,r2
  803538:	30c8d83a 	srl	r4,r6,r3
  80353c:	3084983a 	sll	r2,r6,r2
  803540:	48c6d83a 	srl	r3,r9,r3
  803544:	290cb03a 	or	r6,r5,r4
  803548:	1004c03a 	cmpne	r2,r2,zero
  80354c:	308cb03a 	or	r6,r6,r2
  803550:	898dc83a 	sub	r6,r17,r6
  803554:	89a3803a 	cmpltu	r17,r17,r6
  803558:	40d1c83a 	sub	r8,r8,r3
  80355c:	4451c83a 	sub	r8,r8,r17
  803560:	3023883a 	mov	r17,r6
  803564:	4080202c 	andhi	r2,r8,128
  803568:	10002326 	beq	r2,zero,8035f8 <__adddf3+0x204>
  80356c:	04c02034 	movhi	r19,128
  803570:	9cffffc4 	addi	r19,r19,-1
  803574:	44e6703a 	and	r19,r8,r19
  803578:	98007626 	beq	r19,zero,803754 <__adddf3+0x360>
  80357c:	9809883a 	mov	r4,r19
  803580:	080486c0 	call	80486c <__clzsi2>
  803584:	10fffe04 	addi	r3,r2,-8
  803588:	010007c4 	movi	r4,31
  80358c:	20c07716 	blt	r4,r3,80376c <__adddf3+0x378>
  803590:	00800804 	movi	r2,32
  803594:	10c5c83a 	sub	r2,r2,r3
  803598:	8884d83a 	srl	r2,r17,r2
  80359c:	98d0983a 	sll	r8,r19,r3
  8035a0:	88e2983a 	sll	r17,r17,r3
  8035a4:	1204b03a 	or	r2,r2,r8
  8035a8:	1c007416 	blt	r3,r16,80377c <__adddf3+0x388>
  8035ac:	1c21c83a 	sub	r16,r3,r16
  8035b0:	82000044 	addi	r8,r16,1
  8035b4:	00c007c4 	movi	r3,31
  8035b8:	1a009116 	blt	r3,r8,803800 <__adddf3+0x40c>
  8035bc:	00c00804 	movi	r3,32
  8035c0:	1a07c83a 	sub	r3,r3,r8
  8035c4:	8a08d83a 	srl	r4,r17,r8
  8035c8:	88e2983a 	sll	r17,r17,r3
  8035cc:	10c6983a 	sll	r3,r2,r3
  8035d0:	1210d83a 	srl	r8,r2,r8
  8035d4:	8804c03a 	cmpne	r2,r17,zero
  8035d8:	1906b03a 	or	r3,r3,r4
  8035dc:	18a2b03a 	or	r17,r3,r2
  8035e0:	0021883a 	mov	r16,zero
  8035e4:	003fa206 	br	803470 <__alt_data_end+0xff803470>
  8035e8:	1890b03a 	or	r8,r3,r2
  8035ec:	40017d26 	beq	r8,zero,803be4 <__adddf3+0x7f0>
  8035f0:	1011883a 	mov	r8,r2
  8035f4:	1823883a 	mov	r17,r3
  8035f8:	888001cc 	andi	r2,r17,7
  8035fc:	103f9e1e 	bne	r2,zero,803478 <__alt_data_end+0xff803478>
  803600:	4004977a 	slli	r2,r8,29
  803604:	8822d0fa 	srli	r17,r17,3
  803608:	4010d0fa 	srli	r8,r8,3
  80360c:	9007883a 	mov	r3,r18
  803610:	1444b03a 	or	r2,r2,r17
  803614:	0101ffc4 	movi	r4,2047
  803618:	81002426 	beq	r16,r4,8036ac <__adddf3+0x2b8>
  80361c:	8120703a 	and	r16,r16,r4
  803620:	01000434 	movhi	r4,16
  803624:	213fffc4 	addi	r4,r4,-1
  803628:	4110703a 	and	r8,r8,r4
  80362c:	003fa806 	br	8034d0 <__alt_data_end+0xff8034d0>
  803630:	8089c83a 	sub	r4,r16,r2
  803634:	01005e0e 	bge	zero,r4,8037b0 <__adddf3+0x3bc>
  803638:	10002b26 	beq	r2,zero,8036e8 <__adddf3+0x2f4>
  80363c:	0081ffc4 	movi	r2,2047
  803640:	80bf8b26 	beq	r16,r2,803470 <__alt_data_end+0xff803470>
  803644:	4a402034 	orhi	r9,r9,128
  803648:	00800e04 	movi	r2,56
  80364c:	1100a40e 	bge	r2,r4,8038e0 <__adddf3+0x4ec>
  803650:	498cb03a 	or	r6,r9,r6
  803654:	300ac03a 	cmpne	r5,r6,zero
  803658:	0013883a 	mov	r9,zero
  80365c:	2c4b883a 	add	r5,r5,r17
  803660:	2c63803a 	cmpltu	r17,r5,r17
  803664:	4a11883a 	add	r8,r9,r8
  803668:	8a11883a 	add	r8,r17,r8
  80366c:	2823883a 	mov	r17,r5
  803670:	4080202c 	andhi	r2,r8,128
  803674:	103fe026 	beq	r2,zero,8035f8 <__alt_data_end+0xff8035f8>
  803678:	84000044 	addi	r16,r16,1
  80367c:	0081ffc4 	movi	r2,2047
  803680:	8080d226 	beq	r16,r2,8039cc <__adddf3+0x5d8>
  803684:	00bfe034 	movhi	r2,65408
  803688:	10bfffc4 	addi	r2,r2,-1
  80368c:	4090703a 	and	r8,r8,r2
  803690:	880ad07a 	srli	r5,r17,1
  803694:	400897fa 	slli	r4,r8,31
  803698:	88c0004c 	andi	r3,r17,1
  80369c:	28e2b03a 	or	r17,r5,r3
  8036a0:	4010d07a 	srli	r8,r8,1
  8036a4:	2462b03a 	or	r17,r4,r17
  8036a8:	003f7106 	br	803470 <__alt_data_end+0xff803470>
  8036ac:	4088b03a 	or	r4,r8,r2
  8036b0:	20014526 	beq	r4,zero,803bc8 <__adddf3+0x7d4>
  8036b4:	01000434 	movhi	r4,16
  8036b8:	42000234 	orhi	r8,r8,8
  8036bc:	213fffc4 	addi	r4,r4,-1
  8036c0:	4110703a 	and	r8,r8,r4
  8036c4:	003f8206 	br	8034d0 <__alt_data_end+0xff8034d0>
  8036c8:	18ffffc4 	addi	r3,r3,-1
  8036cc:	1800491e 	bne	r3,zero,8037f4 <__adddf3+0x400>
  8036d0:	898bc83a 	sub	r5,r17,r6
  8036d4:	8963803a 	cmpltu	r17,r17,r5
  8036d8:	4251c83a 	sub	r8,r8,r9
  8036dc:	4451c83a 	sub	r8,r8,r17
  8036e0:	2823883a 	mov	r17,r5
  8036e4:	003f9f06 	br	803564 <__alt_data_end+0xff803564>
  8036e8:	4984b03a 	or	r2,r9,r6
  8036ec:	103f6026 	beq	r2,zero,803470 <__alt_data_end+0xff803470>
  8036f0:	213fffc4 	addi	r4,r4,-1
  8036f4:	2000931e 	bne	r4,zero,803944 <__adddf3+0x550>
  8036f8:	898d883a 	add	r6,r17,r6
  8036fc:	3463803a 	cmpltu	r17,r6,r17
  803700:	4251883a 	add	r8,r8,r9
  803704:	8a11883a 	add	r8,r17,r8
  803708:	3023883a 	mov	r17,r6
  80370c:	003fd806 	br	803670 <__alt_data_end+0xff803670>
  803710:	1800541e 	bne	r3,zero,803864 <__adddf3+0x470>
  803714:	80800044 	addi	r2,r16,1
  803718:	1081ffcc 	andi	r2,r2,2047
  80371c:	00c00044 	movi	r3,1
  803720:	1880a00e 	bge	r3,r2,8039a4 <__adddf3+0x5b0>
  803724:	8989c83a 	sub	r4,r17,r6
  803728:	8905803a 	cmpltu	r2,r17,r4
  80372c:	4267c83a 	sub	r19,r8,r9
  803730:	98a7c83a 	sub	r19,r19,r2
  803734:	9880202c 	andhi	r2,r19,128
  803738:	10006326 	beq	r2,zero,8038c8 <__adddf3+0x4d4>
  80373c:	3463c83a 	sub	r17,r6,r17
  803740:	4a07c83a 	sub	r3,r9,r8
  803744:	344d803a 	cmpltu	r6,r6,r17
  803748:	19a7c83a 	sub	r19,r3,r6
  80374c:	3825883a 	mov	r18,r7
  803750:	983f8a1e 	bne	r19,zero,80357c <__alt_data_end+0xff80357c>
  803754:	8809883a 	mov	r4,r17
  803758:	080486c0 	call	80486c <__clzsi2>
  80375c:	10800804 	addi	r2,r2,32
  803760:	10fffe04 	addi	r3,r2,-8
  803764:	010007c4 	movi	r4,31
  803768:	20ff890e 	bge	r4,r3,803590 <__alt_data_end+0xff803590>
  80376c:	10bff604 	addi	r2,r2,-40
  803770:	8884983a 	sll	r2,r17,r2
  803774:	0023883a 	mov	r17,zero
  803778:	1c3f8c0e 	bge	r3,r16,8035ac <__alt_data_end+0xff8035ac>
  80377c:	023fe034 	movhi	r8,65408
  803780:	423fffc4 	addi	r8,r8,-1
  803784:	80e1c83a 	sub	r16,r16,r3
  803788:	1210703a 	and	r8,r2,r8
  80378c:	003f3806 	br	803470 <__alt_data_end+0xff803470>
  803790:	9007883a 	mov	r3,r18
  803794:	0011883a 	mov	r8,zero
  803798:	0005883a 	mov	r2,zero
  80379c:	003f4c06 	br	8034d0 <__alt_data_end+0xff8034d0>
  8037a0:	498cb03a 	or	r6,r9,r6
  8037a4:	300cc03a 	cmpne	r6,r6,zero
  8037a8:	0007883a 	mov	r3,zero
  8037ac:	003f6806 	br	803550 <__alt_data_end+0xff803550>
  8037b0:	20009c1e 	bne	r4,zero,803a24 <__adddf3+0x630>
  8037b4:	80800044 	addi	r2,r16,1
  8037b8:	1141ffcc 	andi	r5,r2,2047
  8037bc:	01000044 	movi	r4,1
  8037c0:	2140670e 	bge	r4,r5,803960 <__adddf3+0x56c>
  8037c4:	0101ffc4 	movi	r4,2047
  8037c8:	11007f26 	beq	r2,r4,8039c8 <__adddf3+0x5d4>
  8037cc:	898d883a 	add	r6,r17,r6
  8037d0:	4247883a 	add	r3,r8,r9
  8037d4:	3451803a 	cmpltu	r8,r6,r17
  8037d8:	40d1883a 	add	r8,r8,r3
  8037dc:	402297fa 	slli	r17,r8,31
  8037e0:	300cd07a 	srli	r6,r6,1
  8037e4:	4010d07a 	srli	r8,r8,1
  8037e8:	1021883a 	mov	r16,r2
  8037ec:	89a2b03a 	or	r17,r17,r6
  8037f0:	003f1f06 	br	803470 <__alt_data_end+0xff803470>
  8037f4:	0081ffc4 	movi	r2,2047
  8037f8:	80bf481e 	bne	r16,r2,80351c <__alt_data_end+0xff80351c>
  8037fc:	003f1c06 	br	803470 <__alt_data_end+0xff803470>
  803800:	843ff844 	addi	r16,r16,-31
  803804:	01000804 	movi	r4,32
  803808:	1406d83a 	srl	r3,r2,r16
  80380c:	41005026 	beq	r8,r4,803950 <__adddf3+0x55c>
  803810:	01001004 	movi	r4,64
  803814:	2211c83a 	sub	r8,r4,r8
  803818:	1204983a 	sll	r2,r2,r8
  80381c:	88a2b03a 	or	r17,r17,r2
  803820:	8822c03a 	cmpne	r17,r17,zero
  803824:	1c62b03a 	or	r17,r3,r17
  803828:	0011883a 	mov	r8,zero
  80382c:	0021883a 	mov	r16,zero
  803830:	003f7106 	br	8035f8 <__alt_data_end+0xff8035f8>
  803834:	193ff804 	addi	r4,r3,-32
  803838:	00800804 	movi	r2,32
  80383c:	4908d83a 	srl	r4,r9,r4
  803840:	18804526 	beq	r3,r2,803958 <__adddf3+0x564>
  803844:	00801004 	movi	r2,64
  803848:	10c5c83a 	sub	r2,r2,r3
  80384c:	4886983a 	sll	r3,r9,r2
  803850:	198cb03a 	or	r6,r3,r6
  803854:	300cc03a 	cmpne	r6,r6,zero
  803858:	218cb03a 	or	r6,r4,r6
  80385c:	0007883a 	mov	r3,zero
  803860:	003f3b06 	br	803550 <__alt_data_end+0xff803550>
  803864:	80002a26 	beq	r16,zero,803910 <__adddf3+0x51c>
  803868:	0101ffc4 	movi	r4,2047
  80386c:	11006826 	beq	r2,r4,803a10 <__adddf3+0x61c>
  803870:	00c7c83a 	sub	r3,zero,r3
  803874:	42002034 	orhi	r8,r8,128
  803878:	01000e04 	movi	r4,56
  80387c:	20c07c16 	blt	r4,r3,803a70 <__adddf3+0x67c>
  803880:	010007c4 	movi	r4,31
  803884:	20c0da16 	blt	r4,r3,803bf0 <__adddf3+0x7fc>
  803888:	01000804 	movi	r4,32
  80388c:	20c9c83a 	sub	r4,r4,r3
  803890:	4114983a 	sll	r10,r8,r4
  803894:	88cad83a 	srl	r5,r17,r3
  803898:	8908983a 	sll	r4,r17,r4
  80389c:	40c6d83a 	srl	r3,r8,r3
  8038a0:	5162b03a 	or	r17,r10,r5
  8038a4:	2008c03a 	cmpne	r4,r4,zero
  8038a8:	8922b03a 	or	r17,r17,r4
  8038ac:	3463c83a 	sub	r17,r6,r17
  8038b0:	48c7c83a 	sub	r3,r9,r3
  8038b4:	344d803a 	cmpltu	r6,r6,r17
  8038b8:	1991c83a 	sub	r8,r3,r6
  8038bc:	1021883a 	mov	r16,r2
  8038c0:	3825883a 	mov	r18,r7
  8038c4:	003f2706 	br	803564 <__alt_data_end+0xff803564>
  8038c8:	24d0b03a 	or	r8,r4,r19
  8038cc:	40001b1e 	bne	r8,zero,80393c <__adddf3+0x548>
  8038d0:	0005883a 	mov	r2,zero
  8038d4:	0007883a 	mov	r3,zero
  8038d8:	0021883a 	mov	r16,zero
  8038dc:	003f4d06 	br	803614 <__alt_data_end+0xff803614>
  8038e0:	008007c4 	movi	r2,31
  8038e4:	11003c16 	blt	r2,r4,8039d8 <__adddf3+0x5e4>
  8038e8:	00800804 	movi	r2,32
  8038ec:	1105c83a 	sub	r2,r2,r4
  8038f0:	488e983a 	sll	r7,r9,r2
  8038f4:	310ad83a 	srl	r5,r6,r4
  8038f8:	3084983a 	sll	r2,r6,r2
  8038fc:	4912d83a 	srl	r9,r9,r4
  803900:	394ab03a 	or	r5,r7,r5
  803904:	1004c03a 	cmpne	r2,r2,zero
  803908:	288ab03a 	or	r5,r5,r2
  80390c:	003f5306 	br	80365c <__alt_data_end+0xff80365c>
  803910:	4448b03a 	or	r4,r8,r17
  803914:	20003e26 	beq	r4,zero,803a10 <__adddf3+0x61c>
  803918:	00c6303a 	nor	r3,zero,r3
  80391c:	18003a1e 	bne	r3,zero,803a08 <__adddf3+0x614>
  803920:	3463c83a 	sub	r17,r6,r17
  803924:	4a07c83a 	sub	r3,r9,r8
  803928:	344d803a 	cmpltu	r6,r6,r17
  80392c:	1991c83a 	sub	r8,r3,r6
  803930:	1021883a 	mov	r16,r2
  803934:	3825883a 	mov	r18,r7
  803938:	003f0a06 	br	803564 <__alt_data_end+0xff803564>
  80393c:	2023883a 	mov	r17,r4
  803940:	003f0d06 	br	803578 <__alt_data_end+0xff803578>
  803944:	0081ffc4 	movi	r2,2047
  803948:	80bf3f1e 	bne	r16,r2,803648 <__alt_data_end+0xff803648>
  80394c:	003ec806 	br	803470 <__alt_data_end+0xff803470>
  803950:	0005883a 	mov	r2,zero
  803954:	003fb106 	br	80381c <__alt_data_end+0xff80381c>
  803958:	0007883a 	mov	r3,zero
  80395c:	003fbc06 	br	803850 <__alt_data_end+0xff803850>
  803960:	4444b03a 	or	r2,r8,r17
  803964:	8000871e 	bne	r16,zero,803b84 <__adddf3+0x790>
  803968:	1000ba26 	beq	r2,zero,803c54 <__adddf3+0x860>
  80396c:	4984b03a 	or	r2,r9,r6
  803970:	103ebf26 	beq	r2,zero,803470 <__alt_data_end+0xff803470>
  803974:	8985883a 	add	r2,r17,r6
  803978:	4247883a 	add	r3,r8,r9
  80397c:	1451803a 	cmpltu	r8,r2,r17
  803980:	40d1883a 	add	r8,r8,r3
  803984:	40c0202c 	andhi	r3,r8,128
  803988:	1023883a 	mov	r17,r2
  80398c:	183f1a26 	beq	r3,zero,8035f8 <__alt_data_end+0xff8035f8>
  803990:	00bfe034 	movhi	r2,65408
  803994:	10bfffc4 	addi	r2,r2,-1
  803998:	2021883a 	mov	r16,r4
  80399c:	4090703a 	and	r8,r8,r2
  8039a0:	003eb306 	br	803470 <__alt_data_end+0xff803470>
  8039a4:	4444b03a 	or	r2,r8,r17
  8039a8:	8000291e 	bne	r16,zero,803a50 <__adddf3+0x65c>
  8039ac:	10004b1e 	bne	r2,zero,803adc <__adddf3+0x6e8>
  8039b0:	4990b03a 	or	r8,r9,r6
  8039b4:	40008b26 	beq	r8,zero,803be4 <__adddf3+0x7f0>
  8039b8:	4811883a 	mov	r8,r9
  8039bc:	3023883a 	mov	r17,r6
  8039c0:	3825883a 	mov	r18,r7
  8039c4:	003eaa06 	br	803470 <__alt_data_end+0xff803470>
  8039c8:	1021883a 	mov	r16,r2
  8039cc:	0011883a 	mov	r8,zero
  8039d0:	0005883a 	mov	r2,zero
  8039d4:	003f0f06 	br	803614 <__alt_data_end+0xff803614>
  8039d8:	217ff804 	addi	r5,r4,-32
  8039dc:	00800804 	movi	r2,32
  8039e0:	494ad83a 	srl	r5,r9,r5
  8039e4:	20807d26 	beq	r4,r2,803bdc <__adddf3+0x7e8>
  8039e8:	00801004 	movi	r2,64
  8039ec:	1109c83a 	sub	r4,r2,r4
  8039f0:	4912983a 	sll	r9,r9,r4
  8039f4:	498cb03a 	or	r6,r9,r6
  8039f8:	300cc03a 	cmpne	r6,r6,zero
  8039fc:	298ab03a 	or	r5,r5,r6
  803a00:	0013883a 	mov	r9,zero
  803a04:	003f1506 	br	80365c <__alt_data_end+0xff80365c>
  803a08:	0101ffc4 	movi	r4,2047
  803a0c:	113f9a1e 	bne	r2,r4,803878 <__alt_data_end+0xff803878>
  803a10:	4811883a 	mov	r8,r9
  803a14:	3023883a 	mov	r17,r6
  803a18:	1021883a 	mov	r16,r2
  803a1c:	3825883a 	mov	r18,r7
  803a20:	003e9306 	br	803470 <__alt_data_end+0xff803470>
  803a24:	8000161e 	bne	r16,zero,803a80 <__adddf3+0x68c>
  803a28:	444ab03a 	or	r5,r8,r17
  803a2c:	28005126 	beq	r5,zero,803b74 <__adddf3+0x780>
  803a30:	0108303a 	nor	r4,zero,r4
  803a34:	20004d1e 	bne	r4,zero,803b6c <__adddf3+0x778>
  803a38:	89a3883a 	add	r17,r17,r6
  803a3c:	4253883a 	add	r9,r8,r9
  803a40:	898d803a 	cmpltu	r6,r17,r6
  803a44:	3251883a 	add	r8,r6,r9
  803a48:	1021883a 	mov	r16,r2
  803a4c:	003f0806 	br	803670 <__alt_data_end+0xff803670>
  803a50:	1000301e 	bne	r2,zero,803b14 <__adddf3+0x720>
  803a54:	4984b03a 	or	r2,r9,r6
  803a58:	10007126 	beq	r2,zero,803c20 <__adddf3+0x82c>
  803a5c:	4811883a 	mov	r8,r9
  803a60:	3023883a 	mov	r17,r6
  803a64:	3825883a 	mov	r18,r7
  803a68:	0401ffc4 	movi	r16,2047
  803a6c:	003e8006 	br	803470 <__alt_data_end+0xff803470>
  803a70:	4462b03a 	or	r17,r8,r17
  803a74:	8822c03a 	cmpne	r17,r17,zero
  803a78:	0007883a 	mov	r3,zero
  803a7c:	003f8b06 	br	8038ac <__alt_data_end+0xff8038ac>
  803a80:	0141ffc4 	movi	r5,2047
  803a84:	11403b26 	beq	r2,r5,803b74 <__adddf3+0x780>
  803a88:	0109c83a 	sub	r4,zero,r4
  803a8c:	42002034 	orhi	r8,r8,128
  803a90:	01400e04 	movi	r5,56
  803a94:	29006716 	blt	r5,r4,803c34 <__adddf3+0x840>
  803a98:	014007c4 	movi	r5,31
  803a9c:	29007016 	blt	r5,r4,803c60 <__adddf3+0x86c>
  803aa0:	01400804 	movi	r5,32
  803aa4:	290bc83a 	sub	r5,r5,r4
  803aa8:	4154983a 	sll	r10,r8,r5
  803aac:	890ed83a 	srl	r7,r17,r4
  803ab0:	894a983a 	sll	r5,r17,r5
  803ab4:	4108d83a 	srl	r4,r8,r4
  803ab8:	51e2b03a 	or	r17,r10,r7
  803abc:	280ac03a 	cmpne	r5,r5,zero
  803ac0:	8962b03a 	or	r17,r17,r5
  803ac4:	89a3883a 	add	r17,r17,r6
  803ac8:	2253883a 	add	r9,r4,r9
  803acc:	898d803a 	cmpltu	r6,r17,r6
  803ad0:	3251883a 	add	r8,r6,r9
  803ad4:	1021883a 	mov	r16,r2
  803ad8:	003ee506 	br	803670 <__alt_data_end+0xff803670>
  803adc:	4984b03a 	or	r2,r9,r6
  803ae0:	103e6326 	beq	r2,zero,803470 <__alt_data_end+0xff803470>
  803ae4:	8987c83a 	sub	r3,r17,r6
  803ae8:	88c9803a 	cmpltu	r4,r17,r3
  803aec:	4245c83a 	sub	r2,r8,r9
  803af0:	1105c83a 	sub	r2,r2,r4
  803af4:	1100202c 	andhi	r4,r2,128
  803af8:	203ebb26 	beq	r4,zero,8035e8 <__alt_data_end+0xff8035e8>
  803afc:	3463c83a 	sub	r17,r6,r17
  803b00:	4a07c83a 	sub	r3,r9,r8
  803b04:	344d803a 	cmpltu	r6,r6,r17
  803b08:	1991c83a 	sub	r8,r3,r6
  803b0c:	3825883a 	mov	r18,r7
  803b10:	003e5706 	br	803470 <__alt_data_end+0xff803470>
  803b14:	4984b03a 	or	r2,r9,r6
  803b18:	10002e26 	beq	r2,zero,803bd4 <__adddf3+0x7e0>
  803b1c:	4004d0fa 	srli	r2,r8,3
  803b20:	8822d0fa 	srli	r17,r17,3
  803b24:	4010977a 	slli	r8,r8,29
  803b28:	10c0022c 	andhi	r3,r2,8
  803b2c:	4462b03a 	or	r17,r8,r17
  803b30:	18000826 	beq	r3,zero,803b54 <__adddf3+0x760>
  803b34:	4808d0fa 	srli	r4,r9,3
  803b38:	20c0022c 	andhi	r3,r4,8
  803b3c:	1800051e 	bne	r3,zero,803b54 <__adddf3+0x760>
  803b40:	300cd0fa 	srli	r6,r6,3
  803b44:	4806977a 	slli	r3,r9,29
  803b48:	2005883a 	mov	r2,r4
  803b4c:	3825883a 	mov	r18,r7
  803b50:	19a2b03a 	or	r17,r3,r6
  803b54:	8810d77a 	srli	r8,r17,29
  803b58:	100490fa 	slli	r2,r2,3
  803b5c:	882290fa 	slli	r17,r17,3
  803b60:	0401ffc4 	movi	r16,2047
  803b64:	4090b03a 	or	r8,r8,r2
  803b68:	003e4106 	br	803470 <__alt_data_end+0xff803470>
  803b6c:	0141ffc4 	movi	r5,2047
  803b70:	117fc71e 	bne	r2,r5,803a90 <__alt_data_end+0xff803a90>
  803b74:	4811883a 	mov	r8,r9
  803b78:	3023883a 	mov	r17,r6
  803b7c:	1021883a 	mov	r16,r2
  803b80:	003e3b06 	br	803470 <__alt_data_end+0xff803470>
  803b84:	10002f26 	beq	r2,zero,803c44 <__adddf3+0x850>
  803b88:	4984b03a 	or	r2,r9,r6
  803b8c:	10001126 	beq	r2,zero,803bd4 <__adddf3+0x7e0>
  803b90:	4004d0fa 	srli	r2,r8,3
  803b94:	8822d0fa 	srli	r17,r17,3
  803b98:	4010977a 	slli	r8,r8,29
  803b9c:	10c0022c 	andhi	r3,r2,8
  803ba0:	4462b03a 	or	r17,r8,r17
  803ba4:	183feb26 	beq	r3,zero,803b54 <__alt_data_end+0xff803b54>
  803ba8:	4808d0fa 	srli	r4,r9,3
  803bac:	20c0022c 	andhi	r3,r4,8
  803bb0:	183fe81e 	bne	r3,zero,803b54 <__alt_data_end+0xff803b54>
  803bb4:	300cd0fa 	srli	r6,r6,3
  803bb8:	4806977a 	slli	r3,r9,29
  803bbc:	2005883a 	mov	r2,r4
  803bc0:	19a2b03a 	or	r17,r3,r6
  803bc4:	003fe306 	br	803b54 <__alt_data_end+0xff803b54>
  803bc8:	0011883a 	mov	r8,zero
  803bcc:	0005883a 	mov	r2,zero
  803bd0:	003e3f06 	br	8034d0 <__alt_data_end+0xff8034d0>
  803bd4:	0401ffc4 	movi	r16,2047
  803bd8:	003e2506 	br	803470 <__alt_data_end+0xff803470>
  803bdc:	0013883a 	mov	r9,zero
  803be0:	003f8406 	br	8039f4 <__alt_data_end+0xff8039f4>
  803be4:	0005883a 	mov	r2,zero
  803be8:	0007883a 	mov	r3,zero
  803bec:	003e8906 	br	803614 <__alt_data_end+0xff803614>
  803bf0:	197ff804 	addi	r5,r3,-32
  803bf4:	01000804 	movi	r4,32
  803bf8:	414ad83a 	srl	r5,r8,r5
  803bfc:	19002426 	beq	r3,r4,803c90 <__adddf3+0x89c>
  803c00:	01001004 	movi	r4,64
  803c04:	20c7c83a 	sub	r3,r4,r3
  803c08:	40c6983a 	sll	r3,r8,r3
  803c0c:	1c46b03a 	or	r3,r3,r17
  803c10:	1806c03a 	cmpne	r3,r3,zero
  803c14:	28e2b03a 	or	r17,r5,r3
  803c18:	0007883a 	mov	r3,zero
  803c1c:	003f2306 	br	8038ac <__alt_data_end+0xff8038ac>
  803c20:	0007883a 	mov	r3,zero
  803c24:	5811883a 	mov	r8,r11
  803c28:	00bfffc4 	movi	r2,-1
  803c2c:	0401ffc4 	movi	r16,2047
  803c30:	003e7806 	br	803614 <__alt_data_end+0xff803614>
  803c34:	4462b03a 	or	r17,r8,r17
  803c38:	8822c03a 	cmpne	r17,r17,zero
  803c3c:	0009883a 	mov	r4,zero
  803c40:	003fa006 	br	803ac4 <__alt_data_end+0xff803ac4>
  803c44:	4811883a 	mov	r8,r9
  803c48:	3023883a 	mov	r17,r6
  803c4c:	0401ffc4 	movi	r16,2047
  803c50:	003e0706 	br	803470 <__alt_data_end+0xff803470>
  803c54:	4811883a 	mov	r8,r9
  803c58:	3023883a 	mov	r17,r6
  803c5c:	003e0406 	br	803470 <__alt_data_end+0xff803470>
  803c60:	21fff804 	addi	r7,r4,-32
  803c64:	01400804 	movi	r5,32
  803c68:	41ced83a 	srl	r7,r8,r7
  803c6c:	21400a26 	beq	r4,r5,803c98 <__adddf3+0x8a4>
  803c70:	01401004 	movi	r5,64
  803c74:	2909c83a 	sub	r4,r5,r4
  803c78:	4108983a 	sll	r4,r8,r4
  803c7c:	2448b03a 	or	r4,r4,r17
  803c80:	2008c03a 	cmpne	r4,r4,zero
  803c84:	3922b03a 	or	r17,r7,r4
  803c88:	0009883a 	mov	r4,zero
  803c8c:	003f8d06 	br	803ac4 <__alt_data_end+0xff803ac4>
  803c90:	0007883a 	mov	r3,zero
  803c94:	003fdd06 	br	803c0c <__alt_data_end+0xff803c0c>
  803c98:	0009883a 	mov	r4,zero
  803c9c:	003ff706 	br	803c7c <__alt_data_end+0xff803c7c>

00803ca0 <__muldf3>:
  803ca0:	deffee04 	addi	sp,sp,-72
  803ca4:	dd000c15 	stw	r20,48(sp)
  803ca8:	2828d53a 	srli	r20,r5,20
  803cac:	ddc00f15 	stw	r23,60(sp)
  803cb0:	282ed7fa 	srli	r23,r5,31
  803cb4:	dc000815 	stw	r16,32(sp)
  803cb8:	04000434 	movhi	r16,16
  803cbc:	dcc00b15 	stw	r19,44(sp)
  803cc0:	843fffc4 	addi	r16,r16,-1
  803cc4:	dfc01115 	stw	ra,68(sp)
  803cc8:	df001015 	stw	fp,64(sp)
  803ccc:	dd800e15 	stw	r22,56(sp)
  803cd0:	dd400d15 	stw	r21,52(sp)
  803cd4:	dc800a15 	stw	r18,40(sp)
  803cd8:	dc400915 	stw	r17,36(sp)
  803cdc:	a501ffcc 	andi	r20,r20,2047
  803ce0:	2c20703a 	and	r16,r5,r16
  803ce4:	b827883a 	mov	r19,r23
  803ce8:	ba403fcc 	andi	r9,r23,255
  803cec:	a0006026 	beq	r20,zero,803e70 <__muldf3+0x1d0>
  803cf0:	0081ffc4 	movi	r2,2047
  803cf4:	202d883a 	mov	r22,r4
  803cf8:	a0803626 	beq	r20,r2,803dd4 <__muldf3+0x134>
  803cfc:	84000434 	orhi	r16,r16,16
  803d00:	200ad77a 	srli	r5,r4,29
  803d04:	800490fa 	slli	r2,r16,3
  803d08:	202c90fa 	slli	r22,r4,3
  803d0c:	a53f0044 	addi	r20,r20,-1023
  803d10:	28a0b03a 	or	r16,r5,r2
  803d14:	002b883a 	mov	r21,zero
  803d18:	000b883a 	mov	r5,zero
  803d1c:	3804d53a 	srli	r2,r7,20
  803d20:	3838d7fa 	srli	fp,r7,31
  803d24:	04400434 	movhi	r17,16
  803d28:	8c7fffc4 	addi	r17,r17,-1
  803d2c:	1081ffcc 	andi	r2,r2,2047
  803d30:	3025883a 	mov	r18,r6
  803d34:	3c62703a 	and	r17,r7,r17
  803d38:	e2803fcc 	andi	r10,fp,255
  803d3c:	10006d26 	beq	r2,zero,803ef4 <__muldf3+0x254>
  803d40:	00c1ffc4 	movi	r3,2047
  803d44:	10c06526 	beq	r2,r3,803edc <__muldf3+0x23c>
  803d48:	8c400434 	orhi	r17,r17,16
  803d4c:	300ed77a 	srli	r7,r6,29
  803d50:	880690fa 	slli	r3,r17,3
  803d54:	302490fa 	slli	r18,r6,3
  803d58:	10bf0044 	addi	r2,r2,-1023
  803d5c:	38e2b03a 	or	r17,r7,r3
  803d60:	000f883a 	mov	r7,zero
  803d64:	a087883a 	add	r3,r20,r2
  803d68:	010003c4 	movi	r4,15
  803d6c:	3d44b03a 	or	r2,r7,r21
  803d70:	e5ccf03a 	xor	r6,fp,r23
  803d74:	1a000044 	addi	r8,r3,1
  803d78:	20809b36 	bltu	r4,r2,803fe8 <__muldf3+0x348>
  803d7c:	100490ba 	slli	r2,r2,2
  803d80:	01002034 	movhi	r4,128
  803d84:	210f6504 	addi	r4,r4,15764
  803d88:	1105883a 	add	r2,r2,r4
  803d8c:	10800017 	ldw	r2,0(r2)
  803d90:	1000683a 	jmp	r2
  803d94:	00803fe8 	cmpgeui	r2,zero,255
  803d98:	00803df4 	movhi	r2,247
  803d9c:	00803df4 	movhi	r2,247
  803da0:	00803df0 	cmpltui	r2,zero,247
  803da4:	00803fc4 	movi	r2,255
  803da8:	00803fc4 	movi	r2,255
  803dac:	00803fac 	andhi	r2,zero,254
  803db0:	00803df0 	cmpltui	r2,zero,247
  803db4:	00803fc4 	movi	r2,255
  803db8:	00803fac 	andhi	r2,zero,254
  803dbc:	00803fc4 	movi	r2,255
  803dc0:	00803df0 	cmpltui	r2,zero,247
  803dc4:	00803fd4 	movui	r2,255
  803dc8:	00803fd4 	movui	r2,255
  803dcc:	00803fd4 	movui	r2,255
  803dd0:	00804334 	movhi	r2,268
  803dd4:	2404b03a 	or	r2,r4,r16
  803dd8:	1000711e 	bne	r2,zero,803fa0 <__muldf3+0x300>
  803ddc:	05400204 	movi	r21,8
  803de0:	0021883a 	mov	r16,zero
  803de4:	002d883a 	mov	r22,zero
  803de8:	01400084 	movi	r5,2
  803dec:	003fcb06 	br	803d1c <__alt_data_end+0xff803d1c>
  803df0:	500d883a 	mov	r6,r10
  803df4:	00800084 	movi	r2,2
  803df8:	38805926 	beq	r7,r2,803f60 <__muldf3+0x2c0>
  803dfc:	008000c4 	movi	r2,3
  803e00:	3881bb26 	beq	r7,r2,8044f0 <__muldf3+0x850>
  803e04:	00800044 	movi	r2,1
  803e08:	3881961e 	bne	r7,r2,804464 <__muldf3+0x7c4>
  803e0c:	3027883a 	mov	r19,r6
  803e10:	0005883a 	mov	r2,zero
  803e14:	0021883a 	mov	r16,zero
  803e18:	002d883a 	mov	r22,zero
  803e1c:	1004953a 	slli	r2,r2,20
  803e20:	98c03fcc 	andi	r3,r19,255
  803e24:	04400434 	movhi	r17,16
  803e28:	8c7fffc4 	addi	r17,r17,-1
  803e2c:	180697fa 	slli	r3,r3,31
  803e30:	8460703a 	and	r16,r16,r17
  803e34:	80a0b03a 	or	r16,r16,r2
  803e38:	80c6b03a 	or	r3,r16,r3
  803e3c:	b005883a 	mov	r2,r22
  803e40:	dfc01117 	ldw	ra,68(sp)
  803e44:	df001017 	ldw	fp,64(sp)
  803e48:	ddc00f17 	ldw	r23,60(sp)
  803e4c:	dd800e17 	ldw	r22,56(sp)
  803e50:	dd400d17 	ldw	r21,52(sp)
  803e54:	dd000c17 	ldw	r20,48(sp)
  803e58:	dcc00b17 	ldw	r19,44(sp)
  803e5c:	dc800a17 	ldw	r18,40(sp)
  803e60:	dc400917 	ldw	r17,36(sp)
  803e64:	dc000817 	ldw	r16,32(sp)
  803e68:	dec01204 	addi	sp,sp,72
  803e6c:	f800283a 	ret
  803e70:	2404b03a 	or	r2,r4,r16
  803e74:	202b883a 	mov	r21,r4
  803e78:	10004426 	beq	r2,zero,803f8c <__muldf3+0x2ec>
  803e7c:	80015126 	beq	r16,zero,8043c4 <__muldf3+0x724>
  803e80:	8009883a 	mov	r4,r16
  803e84:	d9800715 	stw	r6,28(sp)
  803e88:	d9c00215 	stw	r7,8(sp)
  803e8c:	da400415 	stw	r9,16(sp)
  803e90:	080486c0 	call	80486c <__clzsi2>
  803e94:	d9800717 	ldw	r6,28(sp)
  803e98:	d9c00217 	ldw	r7,8(sp)
  803e9c:	da400417 	ldw	r9,16(sp)
  803ea0:	113ffd44 	addi	r4,r2,-11
  803ea4:	00c00704 	movi	r3,28
  803ea8:	19014216 	blt	r3,r4,8043b4 <__muldf3+0x714>
  803eac:	00c00744 	movi	r3,29
  803eb0:	15bffe04 	addi	r22,r2,-8
  803eb4:	1907c83a 	sub	r3,r3,r4
  803eb8:	85a0983a 	sll	r16,r16,r22
  803ebc:	a8c6d83a 	srl	r3,r21,r3
  803ec0:	adac983a 	sll	r22,r21,r22
  803ec4:	1c20b03a 	or	r16,r3,r16
  803ec8:	1080fcc4 	addi	r2,r2,1011
  803ecc:	00a9c83a 	sub	r20,zero,r2
  803ed0:	002b883a 	mov	r21,zero
  803ed4:	000b883a 	mov	r5,zero
  803ed8:	003f9006 	br	803d1c <__alt_data_end+0xff803d1c>
  803edc:	3446b03a 	or	r3,r6,r17
  803ee0:	1800281e 	bne	r3,zero,803f84 <__muldf3+0x2e4>
  803ee4:	0023883a 	mov	r17,zero
  803ee8:	0025883a 	mov	r18,zero
  803eec:	01c00084 	movi	r7,2
  803ef0:	003f9c06 	br	803d64 <__alt_data_end+0xff803d64>
  803ef4:	3446b03a 	or	r3,r6,r17
  803ef8:	18001e26 	beq	r3,zero,803f74 <__muldf3+0x2d4>
  803efc:	88012126 	beq	r17,zero,804384 <__muldf3+0x6e4>
  803f00:	8809883a 	mov	r4,r17
  803f04:	d9400215 	stw	r5,8(sp)
  803f08:	d9800715 	stw	r6,28(sp)
  803f0c:	da400415 	stw	r9,16(sp)
  803f10:	da800315 	stw	r10,12(sp)
  803f14:	080486c0 	call	80486c <__clzsi2>
  803f18:	d9400217 	ldw	r5,8(sp)
  803f1c:	d9800717 	ldw	r6,28(sp)
  803f20:	da400417 	ldw	r9,16(sp)
  803f24:	da800317 	ldw	r10,12(sp)
  803f28:	113ffd44 	addi	r4,r2,-11
  803f2c:	00c00704 	movi	r3,28
  803f30:	19011016 	blt	r3,r4,804374 <__muldf3+0x6d4>
  803f34:	00c00744 	movi	r3,29
  803f38:	14bffe04 	addi	r18,r2,-8
  803f3c:	1907c83a 	sub	r3,r3,r4
  803f40:	8ca2983a 	sll	r17,r17,r18
  803f44:	30c6d83a 	srl	r3,r6,r3
  803f48:	34a4983a 	sll	r18,r6,r18
  803f4c:	1c62b03a 	or	r17,r3,r17
  803f50:	1080fcc4 	addi	r2,r2,1011
  803f54:	0085c83a 	sub	r2,zero,r2
  803f58:	000f883a 	mov	r7,zero
  803f5c:	003f8106 	br	803d64 <__alt_data_end+0xff803d64>
  803f60:	3027883a 	mov	r19,r6
  803f64:	0081ffc4 	movi	r2,2047
  803f68:	0021883a 	mov	r16,zero
  803f6c:	002d883a 	mov	r22,zero
  803f70:	003faa06 	br	803e1c <__alt_data_end+0xff803e1c>
  803f74:	0023883a 	mov	r17,zero
  803f78:	0025883a 	mov	r18,zero
  803f7c:	01c00044 	movi	r7,1
  803f80:	003f7806 	br	803d64 <__alt_data_end+0xff803d64>
  803f84:	01c000c4 	movi	r7,3
  803f88:	003f7606 	br	803d64 <__alt_data_end+0xff803d64>
  803f8c:	05400104 	movi	r21,4
  803f90:	0021883a 	mov	r16,zero
  803f94:	002d883a 	mov	r22,zero
  803f98:	01400044 	movi	r5,1
  803f9c:	003f5f06 	br	803d1c <__alt_data_end+0xff803d1c>
  803fa0:	05400304 	movi	r21,12
  803fa4:	014000c4 	movi	r5,3
  803fa8:	003f5c06 	br	803d1c <__alt_data_end+0xff803d1c>
  803fac:	04000434 	movhi	r16,16
  803fb0:	0027883a 	mov	r19,zero
  803fb4:	843fffc4 	addi	r16,r16,-1
  803fb8:	05bfffc4 	movi	r22,-1
  803fbc:	0081ffc4 	movi	r2,2047
  803fc0:	003f9606 	br	803e1c <__alt_data_end+0xff803e1c>
  803fc4:	8023883a 	mov	r17,r16
  803fc8:	b025883a 	mov	r18,r22
  803fcc:	280f883a 	mov	r7,r5
  803fd0:	003f8806 	br	803df4 <__alt_data_end+0xff803df4>
  803fd4:	8023883a 	mov	r17,r16
  803fd8:	b025883a 	mov	r18,r22
  803fdc:	480d883a 	mov	r6,r9
  803fe0:	280f883a 	mov	r7,r5
  803fe4:	003f8306 	br	803df4 <__alt_data_end+0xff803df4>
  803fe8:	b026d43a 	srli	r19,r22,16
  803fec:	902ed43a 	srli	r23,r18,16
  803ff0:	b5bfffcc 	andi	r22,r22,65535
  803ff4:	94bfffcc 	andi	r18,r18,65535
  803ff8:	b00b883a 	mov	r5,r22
  803ffc:	9009883a 	mov	r4,r18
  804000:	d8c00515 	stw	r3,20(sp)
  804004:	d9800715 	stw	r6,28(sp)
  804008:	da000615 	stw	r8,24(sp)
  80400c:	08048d00 	call	8048d0 <__mulsi3>
  804010:	980b883a 	mov	r5,r19
  804014:	9009883a 	mov	r4,r18
  804018:	1029883a 	mov	r20,r2
  80401c:	08048d00 	call	8048d0 <__mulsi3>
  804020:	b80b883a 	mov	r5,r23
  804024:	9809883a 	mov	r4,r19
  804028:	102b883a 	mov	r21,r2
  80402c:	08048d00 	call	8048d0 <__mulsi3>
  804030:	b809883a 	mov	r4,r23
  804034:	b00b883a 	mov	r5,r22
  804038:	1039883a 	mov	fp,r2
  80403c:	08048d00 	call	8048d0 <__mulsi3>
  804040:	a008d43a 	srli	r4,r20,16
  804044:	1545883a 	add	r2,r2,r21
  804048:	d8c00517 	ldw	r3,20(sp)
  80404c:	2085883a 	add	r2,r4,r2
  804050:	d9800717 	ldw	r6,28(sp)
  804054:	da000617 	ldw	r8,24(sp)
  804058:	1540022e 	bgeu	r2,r21,804064 <__muldf3+0x3c4>
  80405c:	01000074 	movhi	r4,1
  804060:	e139883a 	add	fp,fp,r4
  804064:	100e943a 	slli	r7,r2,16
  804068:	1004d43a 	srli	r2,r2,16
  80406c:	882ad43a 	srli	r21,r17,16
  804070:	a53fffcc 	andi	r20,r20,65535
  804074:	8c7fffcc 	andi	r17,r17,65535
  804078:	3d29883a 	add	r20,r7,r20
  80407c:	b00b883a 	mov	r5,r22
  804080:	8809883a 	mov	r4,r17
  804084:	d8c00515 	stw	r3,20(sp)
  804088:	d9800715 	stw	r6,28(sp)
  80408c:	da000615 	stw	r8,24(sp)
  804090:	dd000115 	stw	r20,4(sp)
  804094:	d8800015 	stw	r2,0(sp)
  804098:	08048d00 	call	8048d0 <__mulsi3>
  80409c:	980b883a 	mov	r5,r19
  8040a0:	8809883a 	mov	r4,r17
  8040a4:	d8800215 	stw	r2,8(sp)
  8040a8:	08048d00 	call	8048d0 <__mulsi3>
  8040ac:	9809883a 	mov	r4,r19
  8040b0:	a80b883a 	mov	r5,r21
  8040b4:	1029883a 	mov	r20,r2
  8040b8:	08048d00 	call	8048d0 <__mulsi3>
  8040bc:	b00b883a 	mov	r5,r22
  8040c0:	a809883a 	mov	r4,r21
  8040c4:	d8800415 	stw	r2,16(sp)
  8040c8:	08048d00 	call	8048d0 <__mulsi3>
  8040cc:	d9c00217 	ldw	r7,8(sp)
  8040d0:	1505883a 	add	r2,r2,r20
  8040d4:	d8c00517 	ldw	r3,20(sp)
  8040d8:	3826d43a 	srli	r19,r7,16
  8040dc:	d9800717 	ldw	r6,28(sp)
  8040e0:	da000617 	ldw	r8,24(sp)
  8040e4:	9885883a 	add	r2,r19,r2
  8040e8:	da400417 	ldw	r9,16(sp)
  8040ec:	1500022e 	bgeu	r2,r20,8040f8 <__muldf3+0x458>
  8040f0:	01000074 	movhi	r4,1
  8040f4:	4913883a 	add	r9,r9,r4
  8040f8:	1028d43a 	srli	r20,r2,16
  8040fc:	1004943a 	slli	r2,r2,16
  804100:	802cd43a 	srli	r22,r16,16
  804104:	843fffcc 	andi	r16,r16,65535
  804108:	3cffffcc 	andi	r19,r7,65535
  80410c:	9009883a 	mov	r4,r18
  804110:	800b883a 	mov	r5,r16
  804114:	a269883a 	add	r20,r20,r9
  804118:	d8c00515 	stw	r3,20(sp)
  80411c:	d9800715 	stw	r6,28(sp)
  804120:	da000615 	stw	r8,24(sp)
  804124:	14e7883a 	add	r19,r2,r19
  804128:	08048d00 	call	8048d0 <__mulsi3>
  80412c:	9009883a 	mov	r4,r18
  804130:	b00b883a 	mov	r5,r22
  804134:	d8800315 	stw	r2,12(sp)
  804138:	08048d00 	call	8048d0 <__mulsi3>
  80413c:	b809883a 	mov	r4,r23
  804140:	b00b883a 	mov	r5,r22
  804144:	d8800215 	stw	r2,8(sp)
  804148:	08048d00 	call	8048d0 <__mulsi3>
  80414c:	b80b883a 	mov	r5,r23
  804150:	8009883a 	mov	r4,r16
  804154:	d8800415 	stw	r2,16(sp)
  804158:	08048d00 	call	8048d0 <__mulsi3>
  80415c:	da800317 	ldw	r10,12(sp)
  804160:	d9c00217 	ldw	r7,8(sp)
  804164:	d9000017 	ldw	r4,0(sp)
  804168:	502ed43a 	srli	r23,r10,16
  80416c:	11c5883a 	add	r2,r2,r7
  804170:	24e5883a 	add	r18,r4,r19
  804174:	b885883a 	add	r2,r23,r2
  804178:	d8c00517 	ldw	r3,20(sp)
  80417c:	d9800717 	ldw	r6,28(sp)
  804180:	da000617 	ldw	r8,24(sp)
  804184:	da400417 	ldw	r9,16(sp)
  804188:	11c0022e 	bgeu	r2,r7,804194 <__muldf3+0x4f4>
  80418c:	01000074 	movhi	r4,1
  804190:	4913883a 	add	r9,r9,r4
  804194:	100ed43a 	srli	r7,r2,16
  804198:	1004943a 	slli	r2,r2,16
  80419c:	55ffffcc 	andi	r23,r10,65535
  8041a0:	3a53883a 	add	r9,r7,r9
  8041a4:	8809883a 	mov	r4,r17
  8041a8:	800b883a 	mov	r5,r16
  8041ac:	d8c00515 	stw	r3,20(sp)
  8041b0:	d9800715 	stw	r6,28(sp)
  8041b4:	da000615 	stw	r8,24(sp)
  8041b8:	da400415 	stw	r9,16(sp)
  8041bc:	15ef883a 	add	r23,r2,r23
  8041c0:	08048d00 	call	8048d0 <__mulsi3>
  8041c4:	8809883a 	mov	r4,r17
  8041c8:	b00b883a 	mov	r5,r22
  8041cc:	d8800215 	stw	r2,8(sp)
  8041d0:	08048d00 	call	8048d0 <__mulsi3>
  8041d4:	b00b883a 	mov	r5,r22
  8041d8:	a809883a 	mov	r4,r21
  8041dc:	d8800315 	stw	r2,12(sp)
  8041e0:	08048d00 	call	8048d0 <__mulsi3>
  8041e4:	8009883a 	mov	r4,r16
  8041e8:	a80b883a 	mov	r5,r21
  8041ec:	1023883a 	mov	r17,r2
  8041f0:	08048d00 	call	8048d0 <__mulsi3>
  8041f4:	d9c00217 	ldw	r7,8(sp)
  8041f8:	da800317 	ldw	r10,12(sp)
  8041fc:	d8c00517 	ldw	r3,20(sp)
  804200:	3808d43a 	srli	r4,r7,16
  804204:	1285883a 	add	r2,r2,r10
  804208:	d9800717 	ldw	r6,28(sp)
  80420c:	2085883a 	add	r2,r4,r2
  804210:	da000617 	ldw	r8,24(sp)
  804214:	da400417 	ldw	r9,16(sp)
  804218:	1280022e 	bgeu	r2,r10,804224 <__muldf3+0x584>
  80421c:	01000074 	movhi	r4,1
  804220:	8923883a 	add	r17,r17,r4
  804224:	1008943a 	slli	r4,r2,16
  804228:	39ffffcc 	andi	r7,r7,65535
  80422c:	e4b9883a 	add	fp,fp,r18
  804230:	21cf883a 	add	r7,r4,r7
  804234:	e4e7803a 	cmpltu	r19,fp,r19
  804238:	3d0f883a 	add	r7,r7,r20
  80423c:	bf39883a 	add	fp,r23,fp
  804240:	99c9883a 	add	r4,r19,r7
  804244:	e5ef803a 	cmpltu	r23,fp,r23
  804248:	490b883a 	add	r5,r9,r4
  80424c:	1004d43a 	srli	r2,r2,16
  804250:	b965883a 	add	r18,r23,r5
  804254:	24c9803a 	cmpltu	r4,r4,r19
  804258:	3d29803a 	cmpltu	r20,r7,r20
  80425c:	a128b03a 	or	r20,r20,r4
  804260:	95ef803a 	cmpltu	r23,r18,r23
  804264:	2a53803a 	cmpltu	r9,r5,r9
  804268:	a0a9883a 	add	r20,r20,r2
  80426c:	4deeb03a 	or	r23,r9,r23
  804270:	a5ef883a 	add	r23,r20,r23
  804274:	bc63883a 	add	r17,r23,r17
  804278:	e004927a 	slli	r2,fp,9
  80427c:	d9000117 	ldw	r4,4(sp)
  804280:	882e927a 	slli	r23,r17,9
  804284:	9022d5fa 	srli	r17,r18,23
  804288:	e038d5fa 	srli	fp,fp,23
  80428c:	1104b03a 	or	r2,r2,r4
  804290:	9024927a 	slli	r18,r18,9
  804294:	1004c03a 	cmpne	r2,r2,zero
  804298:	bc62b03a 	or	r17,r23,r17
  80429c:	1738b03a 	or	fp,r2,fp
  8042a0:	8880402c 	andhi	r2,r17,256
  8042a4:	e4a4b03a 	or	r18,fp,r18
  8042a8:	10000726 	beq	r2,zero,8042c8 <__muldf3+0x628>
  8042ac:	9006d07a 	srli	r3,r18,1
  8042b0:	880497fa 	slli	r2,r17,31
  8042b4:	9480004c 	andi	r18,r18,1
  8042b8:	8822d07a 	srli	r17,r17,1
  8042bc:	1ca4b03a 	or	r18,r3,r18
  8042c0:	14a4b03a 	or	r18,r2,r18
  8042c4:	4007883a 	mov	r3,r8
  8042c8:	1880ffc4 	addi	r2,r3,1023
  8042cc:	0080460e 	bge	zero,r2,8043e8 <__muldf3+0x748>
  8042d0:	910001cc 	andi	r4,r18,7
  8042d4:	20000726 	beq	r4,zero,8042f4 <__muldf3+0x654>
  8042d8:	910003cc 	andi	r4,r18,15
  8042dc:	01400104 	movi	r5,4
  8042e0:	21400426 	beq	r4,r5,8042f4 <__muldf3+0x654>
  8042e4:	9149883a 	add	r4,r18,r5
  8042e8:	24a5803a 	cmpltu	r18,r4,r18
  8042ec:	8ca3883a 	add	r17,r17,r18
  8042f0:	2025883a 	mov	r18,r4
  8042f4:	8900402c 	andhi	r4,r17,256
  8042f8:	20000426 	beq	r4,zero,80430c <__muldf3+0x66c>
  8042fc:	18810004 	addi	r2,r3,1024
  804300:	00ffc034 	movhi	r3,65280
  804304:	18ffffc4 	addi	r3,r3,-1
  804308:	88e2703a 	and	r17,r17,r3
  80430c:	00c1ff84 	movi	r3,2046
  804310:	18bf1316 	blt	r3,r2,803f60 <__alt_data_end+0xff803f60>
  804314:	882c977a 	slli	r22,r17,29
  804318:	9024d0fa 	srli	r18,r18,3
  80431c:	8822927a 	slli	r17,r17,9
  804320:	1081ffcc 	andi	r2,r2,2047
  804324:	b4acb03a 	or	r22,r22,r18
  804328:	8820d33a 	srli	r16,r17,12
  80432c:	3027883a 	mov	r19,r6
  804330:	003eba06 	br	803e1c <__alt_data_end+0xff803e1c>
  804334:	8080022c 	andhi	r2,r16,8
  804338:	10000926 	beq	r2,zero,804360 <__muldf3+0x6c0>
  80433c:	8880022c 	andhi	r2,r17,8
  804340:	1000071e 	bne	r2,zero,804360 <__muldf3+0x6c0>
  804344:	00800434 	movhi	r2,16
  804348:	8c000234 	orhi	r16,r17,8
  80434c:	10bfffc4 	addi	r2,r2,-1
  804350:	e027883a 	mov	r19,fp
  804354:	80a0703a 	and	r16,r16,r2
  804358:	902d883a 	mov	r22,r18
  80435c:	003f1706 	br	803fbc <__alt_data_end+0xff803fbc>
  804360:	00800434 	movhi	r2,16
  804364:	84000234 	orhi	r16,r16,8
  804368:	10bfffc4 	addi	r2,r2,-1
  80436c:	80a0703a 	and	r16,r16,r2
  804370:	003f1206 	br	803fbc <__alt_data_end+0xff803fbc>
  804374:	147ff604 	addi	r17,r2,-40
  804378:	3462983a 	sll	r17,r6,r17
  80437c:	0025883a 	mov	r18,zero
  804380:	003ef306 	br	803f50 <__alt_data_end+0xff803f50>
  804384:	3009883a 	mov	r4,r6
  804388:	d9400215 	stw	r5,8(sp)
  80438c:	d9800715 	stw	r6,28(sp)
  804390:	da400415 	stw	r9,16(sp)
  804394:	da800315 	stw	r10,12(sp)
  804398:	080486c0 	call	80486c <__clzsi2>
  80439c:	10800804 	addi	r2,r2,32
  8043a0:	da800317 	ldw	r10,12(sp)
  8043a4:	da400417 	ldw	r9,16(sp)
  8043a8:	d9800717 	ldw	r6,28(sp)
  8043ac:	d9400217 	ldw	r5,8(sp)
  8043b0:	003edd06 	br	803f28 <__alt_data_end+0xff803f28>
  8043b4:	143ff604 	addi	r16,r2,-40
  8043b8:	ac20983a 	sll	r16,r21,r16
  8043bc:	002d883a 	mov	r22,zero
  8043c0:	003ec106 	br	803ec8 <__alt_data_end+0xff803ec8>
  8043c4:	d9800715 	stw	r6,28(sp)
  8043c8:	d9c00215 	stw	r7,8(sp)
  8043cc:	da400415 	stw	r9,16(sp)
  8043d0:	080486c0 	call	80486c <__clzsi2>
  8043d4:	10800804 	addi	r2,r2,32
  8043d8:	da400417 	ldw	r9,16(sp)
  8043dc:	d9c00217 	ldw	r7,8(sp)
  8043e0:	d9800717 	ldw	r6,28(sp)
  8043e4:	003eae06 	br	803ea0 <__alt_data_end+0xff803ea0>
  8043e8:	00c00044 	movi	r3,1
  8043ec:	1887c83a 	sub	r3,r3,r2
  8043f0:	01000e04 	movi	r4,56
  8043f4:	20fe8516 	blt	r4,r3,803e0c <__alt_data_end+0xff803e0c>
  8043f8:	010007c4 	movi	r4,31
  8043fc:	20c01b16 	blt	r4,r3,80446c <__muldf3+0x7cc>
  804400:	00800804 	movi	r2,32
  804404:	10c5c83a 	sub	r2,r2,r3
  804408:	888a983a 	sll	r5,r17,r2
  80440c:	90c8d83a 	srl	r4,r18,r3
  804410:	9084983a 	sll	r2,r18,r2
  804414:	88e2d83a 	srl	r17,r17,r3
  804418:	2906b03a 	or	r3,r5,r4
  80441c:	1004c03a 	cmpne	r2,r2,zero
  804420:	1886b03a 	or	r3,r3,r2
  804424:	188001cc 	andi	r2,r3,7
  804428:	10000726 	beq	r2,zero,804448 <__muldf3+0x7a8>
  80442c:	188003cc 	andi	r2,r3,15
  804430:	01000104 	movi	r4,4
  804434:	11000426 	beq	r2,r4,804448 <__muldf3+0x7a8>
  804438:	1805883a 	mov	r2,r3
  80443c:	10c00104 	addi	r3,r2,4
  804440:	1885803a 	cmpltu	r2,r3,r2
  804444:	88a3883a 	add	r17,r17,r2
  804448:	8880202c 	andhi	r2,r17,128
  80444c:	10001c26 	beq	r2,zero,8044c0 <__muldf3+0x820>
  804450:	3027883a 	mov	r19,r6
  804454:	00800044 	movi	r2,1
  804458:	0021883a 	mov	r16,zero
  80445c:	002d883a 	mov	r22,zero
  804460:	003e6e06 	br	803e1c <__alt_data_end+0xff803e1c>
  804464:	4007883a 	mov	r3,r8
  804468:	003f9706 	br	8042c8 <__alt_data_end+0xff8042c8>
  80446c:	017ff844 	movi	r5,-31
  804470:	2885c83a 	sub	r2,r5,r2
  804474:	888ad83a 	srl	r5,r17,r2
  804478:	00800804 	movi	r2,32
  80447c:	18801a26 	beq	r3,r2,8044e8 <__muldf3+0x848>
  804480:	01001004 	movi	r4,64
  804484:	20c7c83a 	sub	r3,r4,r3
  804488:	88e2983a 	sll	r17,r17,r3
  80448c:	8ca4b03a 	or	r18,r17,r18
  804490:	9004c03a 	cmpne	r2,r18,zero
  804494:	2884b03a 	or	r2,r5,r2
  804498:	144001cc 	andi	r17,r2,7
  80449c:	88000d1e 	bne	r17,zero,8044d4 <__muldf3+0x834>
  8044a0:	0021883a 	mov	r16,zero
  8044a4:	102cd0fa 	srli	r22,r2,3
  8044a8:	3027883a 	mov	r19,r6
  8044ac:	0005883a 	mov	r2,zero
  8044b0:	b46cb03a 	or	r22,r22,r17
  8044b4:	003e5906 	br	803e1c <__alt_data_end+0xff803e1c>
  8044b8:	1007883a 	mov	r3,r2
  8044bc:	0023883a 	mov	r17,zero
  8044c0:	8820927a 	slli	r16,r17,9
  8044c4:	1805883a 	mov	r2,r3
  8044c8:	8822977a 	slli	r17,r17,29
  8044cc:	8020d33a 	srli	r16,r16,12
  8044d0:	003ff406 	br	8044a4 <__alt_data_end+0xff8044a4>
  8044d4:	10c003cc 	andi	r3,r2,15
  8044d8:	01000104 	movi	r4,4
  8044dc:	193ff626 	beq	r3,r4,8044b8 <__alt_data_end+0xff8044b8>
  8044e0:	0023883a 	mov	r17,zero
  8044e4:	003fd506 	br	80443c <__alt_data_end+0xff80443c>
  8044e8:	0023883a 	mov	r17,zero
  8044ec:	003fe706 	br	80448c <__alt_data_end+0xff80448c>
  8044f0:	00800434 	movhi	r2,16
  8044f4:	8c000234 	orhi	r16,r17,8
  8044f8:	10bfffc4 	addi	r2,r2,-1
  8044fc:	3027883a 	mov	r19,r6
  804500:	80a0703a 	and	r16,r16,r2
  804504:	902d883a 	mov	r22,r18
  804508:	003eac06 	br	803fbc <__alt_data_end+0xff803fbc>

0080450c <__floatunsidf>:
  80450c:	defffe04 	addi	sp,sp,-8
  804510:	dc000015 	stw	r16,0(sp)
  804514:	dfc00115 	stw	ra,4(sp)
  804518:	2021883a 	mov	r16,r4
  80451c:	20002226 	beq	r4,zero,8045a8 <__floatunsidf+0x9c>
  804520:	080486c0 	call	80486c <__clzsi2>
  804524:	01010784 	movi	r4,1054
  804528:	2089c83a 	sub	r4,r4,r2
  80452c:	01810cc4 	movi	r6,1075
  804530:	310dc83a 	sub	r6,r6,r4
  804534:	00c007c4 	movi	r3,31
  804538:	1980120e 	bge	r3,r6,804584 <__floatunsidf+0x78>
  80453c:	00c104c4 	movi	r3,1043
  804540:	1907c83a 	sub	r3,r3,r4
  804544:	80ca983a 	sll	r5,r16,r3
  804548:	00800434 	movhi	r2,16
  80454c:	10bfffc4 	addi	r2,r2,-1
  804550:	2101ffcc 	andi	r4,r4,2047
  804554:	0021883a 	mov	r16,zero
  804558:	288a703a 	and	r5,r5,r2
  80455c:	2008953a 	slli	r4,r4,20
  804560:	00c00434 	movhi	r3,16
  804564:	18ffffc4 	addi	r3,r3,-1
  804568:	28c6703a 	and	r3,r5,r3
  80456c:	8005883a 	mov	r2,r16
  804570:	1906b03a 	or	r3,r3,r4
  804574:	dfc00117 	ldw	ra,4(sp)
  804578:	dc000017 	ldw	r16,0(sp)
  80457c:	dec00204 	addi	sp,sp,8
  804580:	f800283a 	ret
  804584:	00c002c4 	movi	r3,11
  804588:	188bc83a 	sub	r5,r3,r2
  80458c:	814ad83a 	srl	r5,r16,r5
  804590:	00c00434 	movhi	r3,16
  804594:	18ffffc4 	addi	r3,r3,-1
  804598:	81a0983a 	sll	r16,r16,r6
  80459c:	2101ffcc 	andi	r4,r4,2047
  8045a0:	28ca703a 	and	r5,r5,r3
  8045a4:	003fed06 	br	80455c <__alt_data_end+0xff80455c>
  8045a8:	0009883a 	mov	r4,zero
  8045ac:	000b883a 	mov	r5,zero
  8045b0:	003fea06 	br	80455c <__alt_data_end+0xff80455c>

008045b4 <__extendsfdf2>:
  8045b4:	200ad5fa 	srli	r5,r4,23
  8045b8:	defffd04 	addi	sp,sp,-12
  8045bc:	dc400115 	stw	r17,4(sp)
  8045c0:	29403fcc 	andi	r5,r5,255
  8045c4:	29800044 	addi	r6,r5,1
  8045c8:	04402034 	movhi	r17,128
  8045cc:	dc000015 	stw	r16,0(sp)
  8045d0:	8c7fffc4 	addi	r17,r17,-1
  8045d4:	dfc00215 	stw	ra,8(sp)
  8045d8:	31803fcc 	andi	r6,r6,255
  8045dc:	00800044 	movi	r2,1
  8045e0:	8922703a 	and	r17,r17,r4
  8045e4:	2020d7fa 	srli	r16,r4,31
  8045e8:	1180110e 	bge	r2,r6,804630 <__extendsfdf2+0x7c>
  8045ec:	880cd0fa 	srli	r6,r17,3
  8045f0:	8822977a 	slli	r17,r17,29
  8045f4:	2940e004 	addi	r5,r5,896
  8045f8:	2941ffcc 	andi	r5,r5,2047
  8045fc:	2804953a 	slli	r2,r5,20
  804600:	01400434 	movhi	r5,16
  804604:	800697fa 	slli	r3,r16,31
  804608:	297fffc4 	addi	r5,r5,-1
  80460c:	314a703a 	and	r5,r6,r5
  804610:	288ab03a 	or	r5,r5,r2
  804614:	28c6b03a 	or	r3,r5,r3
  804618:	8805883a 	mov	r2,r17
  80461c:	dfc00217 	ldw	ra,8(sp)
  804620:	dc400117 	ldw	r17,4(sp)
  804624:	dc000017 	ldw	r16,0(sp)
  804628:	dec00304 	addi	sp,sp,12
  80462c:	f800283a 	ret
  804630:	2800111e 	bne	r5,zero,804678 <__extendsfdf2+0xc4>
  804634:	88001c26 	beq	r17,zero,8046a8 <__extendsfdf2+0xf4>
  804638:	8809883a 	mov	r4,r17
  80463c:	080486c0 	call	80486c <__clzsi2>
  804640:	00c00284 	movi	r3,10
  804644:	18801b16 	blt	r3,r2,8046b4 <__extendsfdf2+0x100>
  804648:	018002c4 	movi	r6,11
  80464c:	308dc83a 	sub	r6,r6,r2
  804650:	11000544 	addi	r4,r2,21
  804654:	8986d83a 	srl	r3,r17,r6
  804658:	8922983a 	sll	r17,r17,r4
  80465c:	0180e244 	movi	r6,905
  804660:	01400434 	movhi	r5,16
  804664:	3085c83a 	sub	r2,r6,r2
  804668:	297fffc4 	addi	r5,r5,-1
  80466c:	194c703a 	and	r6,r3,r5
  804670:	1141ffcc 	andi	r5,r2,2047
  804674:	003fe006 	br	8045f8 <__alt_data_end+0xff8045f8>
  804678:	88000826 	beq	r17,zero,80469c <__extendsfdf2+0xe8>
  80467c:	880cd0fa 	srli	r6,r17,3
  804680:	00800434 	movhi	r2,16
